
target/x86_64-rust_kernel/debug/rust_kernel:     file format elf64-x86-64


Disassembly of section .text:

0000000000203000 <_ZN4core4char7convert18from_u32_unchecked17h7a7bb15360a51065E>:
  203000:	48 83 ec 0c          	sub    rsp,0xc
  203004:	89 7c 24 04          	mov    DWORD PTR [rsp+0x4],edi
  203008:	8b 7c 24 04          	mov    edi,DWORD PTR [rsp+0x4]
  20300c:	89 7c 24 08          	mov    DWORD PTR [rsp+0x8],edi
  203010:	8b 44 24 08          	mov    eax,DWORD PTR [rsp+0x8]
  203014:	89 04 24             	mov    DWORD PTR [rsp],eax
  203017:	8b 04 24             	mov    eax,DWORD PTR [rsp]
  20301a:	48 83 c4 0c          	add    rsp,0xc
  20301e:	c3                   	ret    
  20301f:	cc                   	int3   

0000000000203020 <_ZN78_$LT$core..iter..Cloned$LT$I$GT$$u20$as$u20$core..iter..iterator..Iterator$GT$4next17h57072d357e975adeE>:
  203020:	48 83 ec 18          	sub    rsp,0x18
  203024:	48 89 7c 24 10       	mov    QWORD PTR [rsp+0x10],rdi
  203029:	48 8b 7c 24 10       	mov    rdi,QWORD PTR [rsp+0x10]
  20302e:	e8 ed 2b 00 00       	call   205c20 <_ZN91_$LT$core..slice..Iter$LT$$u27$a$C$$u20$T$GT$$u20$as$u20$core..iter..iterator..Iterator$GT$4next17h6302a1ac5b024adfE>
  203033:	48 89 44 24 08       	mov    QWORD PTR [rsp+0x8],rax
  203038:	48 8b 7c 24 08       	mov    rdi,QWORD PTR [rsp+0x8]
  20303d:	e8 6e 07 00 00       	call   2037b0 <_ZN53_$LT$core..option..Option$LT$$RF$$u27$a$u20$T$GT$$GT$6cloned17h1100559061f57c0bE>
  203042:	88 44 24 07          	mov    BYTE PTR [rsp+0x7],al
  203046:	88 54 24 06          	mov    BYTE PTR [rsp+0x6],dl
  20304a:	8a 44 24 07          	mov    al,BYTE PTR [rsp+0x7]
  20304e:	24 01                	and    al,0x1
  203050:	8a 54 24 06          	mov    dl,BYTE PTR [rsp+0x6]
  203054:	48 83 c4 18          	add    rsp,0x18
  203058:	c3                   	ret    
  203059:	cc                   	int3   
  20305a:	cc                   	int3   
  20305b:	cc                   	int3   

000000000020305c <int_80>:
  20305c:	cd 50                	int    0x50
  20305e:	c3                   	ret    

000000000020305f <_start>:
  20305f:	e8 2c 00 00 00       	call   203090 <kmain>
  203064:	cc                   	int3   

0000000000203065 <_call>:
  203065:	ff d7                	call   rdi
  203067:	c3                   	ret    
  203068:	cc                   	int3   
  203069:	cc                   	int3   
  20306a:	cc                   	int3   
  20306b:	cc                   	int3   
  20306c:	cc                   	int3   
  20306d:	cc                   	int3   
  20306e:	cc                   	int3   
  20306f:	cc                   	int3   

0000000000203070 <_ZN11rust_kernel7io_wait17h007eaf7094867aa3E>:
  203070:	50                   	push   rax
  203071:	bf 80 00 00 00       	mov    edi,0x80
  203076:	e8 45 57 00 00       	call   2087c0 <_ZN50_$LT$x86_64..instructions..port..Port$LT$T$GT$$GT$3new17hffca5465bfb4f0f9E>
  20307b:	66 89 44 24 06       	mov    WORD PTR [rsp+0x6],ax
  203080:	31 f6                	xor    esi,esi
  203082:	48 8d 7c 24 06       	lea    rdi,[rsp+0x6]
  203087:	e8 84 57 00 00       	call   208810 <_ZN50_$LT$x86_64..instructions..port..Port$LT$T$GT$$GT$5write17h1f6524f3b3205915E>
  20308c:	58                   	pop    rax
  20308d:	c3                   	ret    
  20308e:	cc                   	int3   
  20308f:	cc                   	int3   

0000000000203090 <kmain>:
  203090:	48 81 ec 68 11 00 00 	sub    rsp,0x1168
  203097:	e8 04 4d 00 00       	call   207da0 <_ZN11rust_kernel9boot_info8get_info17h8781a39d9ce2a9f9E>
  20309c:	48 89 44 24 60       	mov    QWORD PTR [rsp+0x60],rax
  2030a1:	48 8d bc 24 88 08 00 	lea    rdi,[rsp+0x888]
  2030a8:	00 
  2030a9:	e8 82 65 00 00       	call   209630 <_ZN11rust_kernel6memory4init17h9d226ebcaa2425bfE>
  2030ae:	b8 20 08 00 00       	mov    eax,0x820
  2030b3:	89 c2                	mov    edx,eax
  2030b5:	48 8d 8c 24 88 08 00 	lea    rcx,[rsp+0x888]
  2030bc:	00 
  2030bd:	48 8d 74 24 68       	lea    rsi,[rsp+0x68]
  2030c2:	48 89 f7             	mov    rdi,rsi
  2030c5:	48 89 ce             	mov    rsi,rcx
  2030c8:	e8 d3 11 01 00       	call   2142a0 <memcpy>
  2030cd:	e8 2e 52 00 00       	call   208300 <_ZN11rust_kernel9interrupt4init17h981614f67b446b92E>
  2030d2:	48 c7 c0 00 f0 ff ff 	mov    rax,0xfffffffffffff000
  2030d9:	48 89 84 24 a8 10 00 	mov    QWORD PTR [rsp+0x10a8],rax
  2030e0:	00 
  2030e1:	48 8b bc 24 a8 10 00 	mov    rdi,QWORD PTR [rsp+0x10a8]
  2030e8:	00 
  2030e9:	e8 f2 93 00 00       	call   20c4e0 <_ZN6x86_6410structures6paging9recursive18RecursivePageTable3new17hfa6fab5c97355ae2E>
  2030ee:	48 89 44 24 58       	mov    QWORD PTR [rsp+0x58],rax
  2030f3:	66 89 54 24 56       	mov    WORD PTR [rsp+0x56],dx
  2030f8:	66 8b 4c 24 56       	mov    cx,WORD PTR [rsp+0x56]
  2030fd:	66 89 c8             	mov    ax,cx
  203100:	48 8b 7c 24 58       	mov    rdi,QWORD PTR [rsp+0x58]
  203105:	89 c6                	mov    esi,eax
  203107:	e8 f4 52 00 00       	call   208400 <_ZN47_$LT$core..result..Result$LT$T$C$$u20$E$GT$$GT$6unwrap17hd25780a9670211f8E>
  20310c:	66 89 94 24 b8 10 00 	mov    WORD PTR [rsp+0x10b8],dx
  203113:	00 
  203114:	48 89 84 24 b0 10 00 	mov    QWORD PTR [rsp+0x10b0],rax
  20311b:	00 
  20311c:	b8 00 40 06 00       	mov    eax,0x64000
  203121:	89 c7                	mov    edi,eax
  203123:	e8 58 39 00 00       	call   206a80 <_ZN6x86_644addr8VirtAddr8from_ptr17h64ac960e8bb9f885E>
  203128:	48 89 44 24 48       	mov    QWORD PTR [rsp+0x48],rax
  20312d:	48 8b 7c 24 48       	mov    rdi,QWORD PTR [rsp+0x48]
  203132:	e8 39 bf 00 00       	call   20f070 <_ZN50_$LT$x86_64..structures..paging..Page$LT$S$GT$$GT$18containing_address17h1f1c527f3b35fb2aE>
  203137:	48 89 84 24 50 11 00 	mov    QWORD PTR [rsp+0x1150],rax
  20313e:	00 
  20313f:	48 8b 84 24 50 11 00 	mov    rax,QWORD PTR [rsp+0x1150]
  203146:	00 
  203147:	48 89 84 24 d8 10 00 	mov    QWORD PTR [rsp+0x10d8],rax
  20314e:	00 
  20314f:	48 8d bc 24 e8 10 00 	lea    rdi,[rsp+0x10e8]
  203156:	00 
  203157:	48 8d 74 24 68       	lea    rsi,[rsp+0x68]
  20315c:	e8 6f 25 00 00       	call   2056d0 <_ZN177_$LT$rust_kernel..memory..frame_allocator..FrameStackAllocator$u20$as$u20$x86_64..structures..paging..frame_alloc..FrameAllocator$LT$x86_64..structures..paging..Size4KiB$GT$$GT$5alloc17h93b7d26b5485d176E>
  203161:	48 8d bc 24 e8 10 00 	lea    rdi,[rsp+0x10e8]
  203168:	00 
  203169:	e8 d2 05 00 00       	call   203740 <_ZN38_$LT$core..option..Option$LT$T$GT$$GT$6unwrap17hb3d5c55db6c54586E>
  20316e:	48 89 84 24 58 11 00 	mov    QWORD PTR [rsp+0x1158],rax
  203175:	00 
  203176:	48 8b 84 24 58 11 00 	mov    rax,QWORD PTR [rsp+0x1158]
  20317d:	00 
  20317e:	48 89 84 24 e0 10 00 	mov    QWORD PTR [rsp+0x10e0],rax
  203185:	00 
  203186:	b8 01 00 00 00       	mov    eax,0x1
  20318b:	89 c7                	mov    edi,eax
  20318d:	b8 02 00 00 00       	mov    eax,0x2
  203192:	89 c6                	mov    esi,eax
  203194:	e8 27 71 00 00       	call   20a2c0 <_ZN96_$LT$x86_64..structures..paging..page_table..PageTableFlags$u20$as$u20$core..ops..bit..BitOr$GT$5bitor17h3d804951008b7071E>
  203199:	48 89 44 24 40       	mov    QWORD PTR [rsp+0x40],rax
  20319e:	48 8b 94 24 d8 10 00 	mov    rdx,QWORD PTR [rsp+0x10d8]
  2031a5:	00 
  2031a6:	48 8b 8c 24 e0 10 00 	mov    rcx,QWORD PTR [rsp+0x10e0]
  2031ad:	00 
  2031ae:	48 8d bc 24 c8 10 00 	lea    rdi,[rsp+0x10c8]
  2031b5:	00 
  2031b6:	48 8d b4 24 b0 10 00 	lea    rsi,[rsp+0x10b0]
  2031bd:	00 
  2031be:	4c 8b 44 24 40       	mov    r8,QWORD PTR [rsp+0x40]
  2031c3:	4c 8d 4c 24 68       	lea    r9,[rsp+0x68]
  2031c8:	e8 23 10 00 00       	call   2041f0 <_ZN181_$LT$x86_64..structures..paging..recursive..RecursivePageTable$LT$$u27$a$GT$$u20$as$u20$x86_64..structures..paging..recursive..Mapper$LT$x86_64..structures..paging..Size4KiB$GT$$GT$6map_to17h56079748e3b8f5b4E>
  2031cd:	48 8d bc 24 c8 10 00 	lea    rdi,[rsp+0x10c8]
  2031d4:	00 
  2031d5:	e8 d6 52 00 00       	call   2084b0 <_ZN47_$LT$core..result..Result$LT$T$C$$u20$E$GT$$GT$6unwrap17hd94d6ec20a83f8bdE>
  2031da:	48 89 84 24 60 11 00 	mov    QWORD PTR [rsp+0x1160],rax
  2031e1:	00 
  2031e2:	48 8b 84 24 60 11 00 	mov    rax,QWORD PTR [rsp+0x1160]
  2031e9:	00 
  2031ea:	48 89 84 24 c0 10 00 	mov    QWORD PTR [rsp+0x10c0],rax
  2031f1:	00 
  2031f2:	48 8b bc 24 c0 10 00 	mov    rdi,QWORD PTR [rsp+0x10c0]
  2031f9:	00 
  2031fa:	e8 e1 15 00 00       	call   2047e0 <_ZN68_$LT$x86_64..structures..paging..recursive..MapperFlush$LT$S$GT$$GT$5flush17h0d4948a364d010a4E>
  2031ff:	b8 21 00 00 00       	mov    eax,0x21
  203204:	89 c6                	mov    esi,eax
  203206:	48 8d 0d 93 cf ff ff 	lea    rcx,[rip+0xffffffffffffcf93]        # 2001a0 <str.0-0x21>
  20320d:	48 89 8c 24 f8 10 00 	mov    QWORD PTR [rsp+0x10f8],rcx
  203214:	00 
  203215:	48 8b 8c 24 f8 10 00 	mov    rcx,QWORD PTR [rsp+0x10f8]
  20321c:	00 
  20321d:	48 89 cf             	mov    rdi,rcx
  203220:	e8 cb 75 00 00       	call   20a7f0 <_ZN4core5slice29_$LT$impl$u20$$u5b$T$u5d$$GT$3len17h48a35758d0cbd2adE>
  203225:	48 89 44 24 38       	mov    QWORD PTR [rsp+0x38],rax
  20322a:	48 c7 84 24 08 11 00 	mov    QWORD PTR [rsp+0x1108],0x0
  203231:	00 00 00 00 00 
  203236:	48 8b 44 24 38       	mov    rax,QWORD PTR [rsp+0x38]
  20323b:	48 89 84 24 10 11 00 	mov    QWORD PTR [rsp+0x1110],rax
  203242:	00 
  203243:	48 8b bc 24 08 11 00 	mov    rdi,QWORD PTR [rsp+0x1108]
  20324a:	00 
  20324b:	48 8b b4 24 10 11 00 	mov    rsi,QWORD PTR [rsp+0x1110]
  203252:	00 
  203253:	e8 f8 cb 00 00       	call   20fe50 <_ZN54_$LT$I$u20$as$u20$core..iter..traits..IntoIterator$GT$9into_iter17h56ac6af66f4e3063E>
  203258:	48 89 44 24 30       	mov    QWORD PTR [rsp+0x30],rax
  20325d:	48 89 54 24 28       	mov    QWORD PTR [rsp+0x28],rdx
  203262:	48 8b 44 24 30       	mov    rax,QWORD PTR [rsp+0x30]
  203267:	48 89 84 24 18 11 00 	mov    QWORD PTR [rsp+0x1118],rax
  20326e:	00 
  20326f:	48 8b 4c 24 28       	mov    rcx,QWORD PTR [rsp+0x28]
  203274:	48 89 8c 24 20 11 00 	mov    QWORD PTR [rsp+0x1120],rcx
  20327b:	00 
  20327c:	48 8d bc 24 18 11 00 	lea    rdi,[rsp+0x1118]
  203283:	00 
  203284:	e8 e7 ca 00 00       	call   20fd70 <_ZN4core4iter5range93_$LT$impl$u20$core..iter..iterator..Iterator$u20$for$u20$core..ops..range..Range$LT$A$GT$$GT$4next17hd144750dacd6125aE>
  203289:	48 89 94 24 38 11 00 	mov    QWORD PTR [rsp+0x1138],rdx
  203290:	00 
  203291:	48 89 84 24 30 11 00 	mov    QWORD PTR [rsp+0x1130],rax
  203298:	00 
  203299:	48 8b 84 24 30 11 00 	mov    rax,QWORD PTR [rsp+0x1130]
  2032a0:	00 
  2032a1:	48 85 c0             	test   rax,rax
  2032a4:	48 89 44 24 20       	mov    QWORD PTR [rsp+0x20],rax
  2032a9:	74 14                	je     2032bf <kmain+0x22f>
  2032ab:	eb 00                	jmp    2032ad <kmain+0x21d>
  2032ad:	48 8b 44 24 20       	mov    rax,QWORD PTR [rsp+0x20]
  2032b2:	48 83 e8 01          	sub    rax,0x1
  2032b6:	48 89 44 24 18       	mov    QWORD PTR [rsp+0x18],rax
  2032bb:	74 15                	je     2032d2 <kmain+0x242>
  2032bd:	eb 11                	jmp    2032d0 <kmain+0x240>
  2032bf:	b8 00 40 06 00       	mov    eax,0x64000
  2032c4:	89 c7                	mov    edi,eax
  2032c6:	e8 9a fd ff ff       	call   203065 <_call>
  2032cb:	e9 98 00 00 00       	jmp    203368 <kmain+0x2d8>
  2032d0:	0f 0b                	ud2    
  2032d2:	48 8b 84 24 38 11 00 	mov    rax,QWORD PTR [rsp+0x1138]
  2032d9:	00 
  2032da:	48 89 84 24 40 11 00 	mov    QWORD PTR [rsp+0x1140],rax
  2032e1:	00 
  2032e2:	48 8b 84 24 40 11 00 	mov    rax,QWORD PTR [rsp+0x1140]
  2032e9:	00 
  2032ea:	48 89 84 24 28 11 00 	mov    QWORD PTR [rsp+0x1128],rax
  2032f1:	00 
  2032f2:	48 8b 84 24 28 11 00 	mov    rax,QWORD PTR [rsp+0x1128]
  2032f9:	00 
  2032fa:	48 89 84 24 48 11 00 	mov    QWORD PTR [rsp+0x1148],rax
  203301:	00 
  203302:	48 8b 84 24 48 11 00 	mov    rax,QWORD PTR [rsp+0x1148]
  203309:	00 
  20330a:	48 83 f8 21          	cmp    rax,0x21
  20330e:	0f 92 c1             	setb   cl
  203311:	f6 c1 01             	test   cl,0x1
  203314:	48 89 44 24 10       	mov    QWORD PTR [rsp+0x10],rax
  203319:	75 02                	jne    20331d <kmain+0x28d>
  20331b:	eb 4f                	jmp    20336c <kmain+0x2dc>
  20331d:	48 8b 84 24 f8 10 00 	mov    rax,QWORD PTR [rsp+0x10f8]
  203324:	00 
  203325:	48 8b 4c 24 10       	mov    rcx,QWORD PTR [rsp+0x10]
  20332a:	8a 14 08             	mov    dl,BYTE PTR [rax+rcx*1]
  20332d:	48 8b 84 24 48 11 00 	mov    rax,QWORD PTR [rsp+0x1148]
  203334:	00 
  203335:	48 3d 00 10 00 00    	cmp    rax,0x1000
  20333b:	40 0f 92 c6          	setb   sil
  20333f:	40 f6 c6 01          	test   sil,0x1
  203343:	88 54 24 0f          	mov    BYTE PTR [rsp+0xf],dl
  203347:	48 89 04 24          	mov    QWORD PTR [rsp],rax
  20334b:	75 02                	jne    20334f <kmain+0x2bf>
  20334d:	eb 35                	jmp    203384 <kmain+0x2f4>
  20334f:	b8 00 40 06 00       	mov    eax,0x64000
  203354:	89 c1                	mov    ecx,eax
  203356:	48 8b 14 24          	mov    rdx,QWORD PTR [rsp]
  20335a:	40 8a 74 24 0f       	mov    sil,BYTE PTR [rsp+0xf]
  20335f:	40 88 34 11          	mov    BYTE PTR [rcx+rdx*1],sil
  203363:	e9 14 ff ff ff       	jmp    20327c <kmain+0x1ec>
  203368:	eb 00                	jmp    20336a <kmain+0x2da>
  20336a:	eb fe                	jmp    20336a <kmain+0x2da>
  20336c:	48 8d 3d 8d 3c 01 00 	lea    rdi,[rip+0x13c8d]        # 217000 <_ZN11rust_kernel3vga6writer6WRITER17h25e0541f3f3878f2E+0xfd0>
  203373:	ba 21 00 00 00       	mov    edx,0x21
  203378:	48 8b 74 24 10       	mov    rsi,QWORD PTR [rsp+0x10]
  20337d:	e8 be 0d 01 00       	call   214140 <_ZN4core9panicking18panic_bounds_check17h22ce0c4ecd9d2668E>
  203382:	0f 0b                	ud2    
  203384:	48 8d 3d 8d 3c 01 00 	lea    rdi,[rip+0x13c8d]        # 217018 <_ZN11rust_kernel3vga6writer6WRITER17h25e0541f3f3878f2E+0xfe8>
  20338b:	ba 00 10 00 00       	mov    edx,0x1000
  203390:	48 8b 34 24          	mov    rsi,QWORD PTR [rsp]
  203394:	e8 a7 0d 01 00       	call   214140 <_ZN4core9panicking18panic_bounds_check17h22ce0c4ecd9d2668E>
  203399:	0f 0b                	ud2    
  20339b:	cc                   	int3   
  20339c:	cc                   	int3   
  20339d:	cc                   	int3   
  20339e:	cc                   	int3   
  20339f:	cc                   	int3   

00000000002033a0 <_ZN4core5clone5impls51_$LT$impl$u20$core..clone..Clone$u20$for$u20$u8$GT$5clone17ha0fce3b0624c3cd6E>:
  2033a0:	50                   	push   rax
  2033a1:	48 89 3c 24          	mov    QWORD PTR [rsp],rdi
  2033a5:	48 8b 3c 24          	mov    rdi,QWORD PTR [rsp]
  2033a9:	8a 07                	mov    al,BYTE PTR [rdi]
  2033ab:	59                   	pop    rcx
  2033ac:	c3                   	ret    
  2033ad:	cc                   	int3   
  2033ae:	cc                   	int3   
  2033af:	cc                   	int3   

00000000002033b0 <_ZN38_$LT$core..option..Option$LT$T$GT$$GT$3map17h8fdc6388876e7736E>:
  2033b0:	48 83 ec 48          	sub    rsp,0x48
  2033b4:	48 89 7c 24 18       	mov    QWORD PTR [rsp+0x18],rdi
  2033b9:	c6 44 24 47 00       	mov    BYTE PTR [rsp+0x47],0x0
  2033be:	c6 44 24 46 00       	mov    BYTE PTR [rsp+0x46],0x0
  2033c3:	c6 44 24 47 01       	mov    BYTE PTR [rsp+0x47],0x1
  2033c8:	c6 44 24 46 01       	mov    BYTE PTR [rsp+0x46],0x1
  2033cd:	48 8b 7c 24 18       	mov    rdi,QWORD PTR [rsp+0x18]
  2033d2:	48 85 ff             	test   rdi,rdi
  2033d5:	0f 95 c0             	setne  al
  2033d8:	0f b6 c8             	movzx  ecx,al
  2033db:	89 cf                	mov    edi,ecx
  2033dd:	48 89 7c 24 10       	mov    QWORD PTR [rsp+0x10],rdi
  2033e2:	74 14                	je     2033f8 <_ZN38_$LT$core..option..Option$LT$T$GT$$GT$3map17h8fdc6388876e7736E+0x48>
  2033e4:	eb 00                	jmp    2033e6 <_ZN38_$LT$core..option..Option$LT$T$GT$$GT$3map17h8fdc6388876e7736E+0x36>
  2033e6:	48 8b 44 24 10       	mov    rax,QWORD PTR [rsp+0x10]
  2033eb:	48 83 e8 01          	sub    rax,0x1
  2033ef:	48 89 44 24 08       	mov    QWORD PTR [rsp+0x8],rax
  2033f4:	74 0b                	je     203401 <_ZN38_$LT$core..option..Option$LT$T$GT$$GT$3map17h8fdc6388876e7736E+0x51>
  2033f6:	eb 07                	jmp    2033ff <_ZN38_$LT$core..option..Option$LT$T$GT$$GT$3map17h8fdc6388876e7736E+0x4f>
  2033f8:	c6 44 24 28 00       	mov    BYTE PTR [rsp+0x28],0x0
  2033fd:	eb 3b                	jmp    20343a <_ZN38_$LT$core..option..Option$LT$T$GT$$GT$3map17h8fdc6388876e7736E+0x8a>
  2033ff:	0f 0b                	ud2    
  203401:	c6 44 24 47 00       	mov    BYTE PTR [rsp+0x47],0x0
  203406:	48 8b 44 24 18       	mov    rax,QWORD PTR [rsp+0x18]
  20340b:	48 89 44 24 30       	mov    QWORD PTR [rsp+0x30],rax
  203410:	c6 44 24 46 00       	mov    BYTE PTR [rsp+0x46],0x0
  203415:	48 8b 44 24 30       	mov    rax,QWORD PTR [rsp+0x30]
  20341a:	48 89 44 24 38       	mov    QWORD PTR [rsp+0x38],rax
  20341f:	48 8b 7c 24 38       	mov    rdi,QWORD PTR [rsp+0x38]
  203424:	e8 b7 03 00 00       	call   2037e0 <_ZN53_$LT$core..option..Option$LT$$RF$$u27$a$u20$T$GT$$GT$6cloned28_$u7b$$u7b$closure$u7d$$u7d$17h8c7883944b460280E>
  203429:	88 44 24 07          	mov    BYTE PTR [rsp+0x7],al
  20342d:	8a 44 24 07          	mov    al,BYTE PTR [rsp+0x7]
  203431:	88 44 24 29          	mov    BYTE PTR [rsp+0x29],al
  203435:	c6 44 24 28 01       	mov    BYTE PTR [rsp+0x28],0x1
  20343a:	f6 44 24 46 01       	test   BYTE PTR [rsp+0x46],0x1
  20343f:	75 1d                	jne    20345e <_ZN38_$LT$core..option..Option$LT$T$GT$$GT$3map17h8fdc6388876e7736E+0xae>
  203441:	b8 01 00 00 00       	mov    eax,0x1
  203446:	89 c1                	mov    ecx,eax
  203448:	31 c0                	xor    eax,eax
  20344a:	89 c2                	mov    edx,eax
  20344c:	48 83 7c 24 18 00    	cmp    QWORD PTR [rsp+0x18],0x0
  203452:	48 0f 44 ca          	cmove  rcx,rdx
  203456:	48 83 f9 01          	cmp    rcx,0x1
  20345a:	74 16                	je     203472 <_ZN38_$LT$core..option..Option$LT$T$GT$$GT$3map17h8fdc6388876e7736E+0xc2>
  20345c:	eb 22                	jmp    203480 <_ZN38_$LT$core..option..Option$LT$T$GT$$GT$3map17h8fdc6388876e7736E+0xd0>
  20345e:	c6 44 24 46 00       	mov    BYTE PTR [rsp+0x46],0x0
  203463:	eb dc                	jmp    203441 <_ZN38_$LT$core..option..Option$LT$T$GT$$GT$3map17h8fdc6388876e7736E+0x91>
  203465:	8a 44 24 28          	mov    al,BYTE PTR [rsp+0x28]
  203469:	8a 54 24 29          	mov    dl,BYTE PTR [rsp+0x29]
  20346d:	48 83 c4 48          	add    rsp,0x48
  203471:	c3                   	ret    
  203472:	f6 44 24 47 01       	test   BYTE PTR [rsp+0x47],0x1
  203477:	74 ec                	je     203465 <_ZN38_$LT$core..option..Option$LT$T$GT$$GT$3map17h8fdc6388876e7736E+0xb5>
  203479:	c6 44 24 47 00       	mov    BYTE PTR [rsp+0x47],0x0
  20347e:	eb e5                	jmp    203465 <_ZN38_$LT$core..option..Option$LT$T$GT$$GT$3map17h8fdc6388876e7736E+0xb5>
  203480:	eb e3                	jmp    203465 <_ZN38_$LT$core..option..Option$LT$T$GT$$GT$3map17h8fdc6388876e7736E+0xb5>
  203482:	cc                   	int3   
  203483:	cc                   	int3   
  203484:	cc                   	int3   
  203485:	cc                   	int3   
  203486:	cc                   	int3   
  203487:	cc                   	int3   
  203488:	cc                   	int3   
  203489:	cc                   	int3   
  20348a:	cc                   	int3   
  20348b:	cc                   	int3   
  20348c:	cc                   	int3   
  20348d:	cc                   	int3   
  20348e:	cc                   	int3   
  20348f:	cc                   	int3   

0000000000203490 <_ZN38_$LT$core..option..Option$LT$T$GT$$GT$3map17hbf2415b2082f67e3E>:
  203490:	48 83 ec 58          	sub    rsp,0x58
  203494:	48 89 7c 24 18       	mov    QWORD PTR [rsp+0x18],rdi
  203499:	48 89 74 24 20       	mov    QWORD PTR [rsp+0x20],rsi
  20349e:	c6 44 24 57 00       	mov    BYTE PTR [rsp+0x57],0x0
  2034a3:	c6 44 24 56 00       	mov    BYTE PTR [rsp+0x56],0x0
  2034a8:	c6 44 24 57 01       	mov    BYTE PTR [rsp+0x57],0x1
  2034ad:	c6 44 24 56 01       	mov    BYTE PTR [rsp+0x56],0x1
  2034b2:	48 8b 74 24 18       	mov    rsi,QWORD PTR [rsp+0x18]
  2034b7:	48 85 f6             	test   rsi,rsi
  2034ba:	48 89 74 24 10       	mov    QWORD PTR [rsp+0x10],rsi
  2034bf:	74 14                	je     2034d5 <_ZN38_$LT$core..option..Option$LT$T$GT$$GT$3map17hbf2415b2082f67e3E+0x45>
  2034c1:	eb 00                	jmp    2034c3 <_ZN38_$LT$core..option..Option$LT$T$GT$$GT$3map17hbf2415b2082f67e3E+0x33>
  2034c3:	48 8b 44 24 10       	mov    rax,QWORD PTR [rsp+0x10]
  2034c8:	48 83 e8 01          	sub    rax,0x1
  2034cc:	48 89 44 24 08       	mov    QWORD PTR [rsp+0x8],rax
  2034d1:	74 0f                	je     2034e2 <_ZN38_$LT$core..option..Option$LT$T$GT$$GT$3map17hbf2415b2082f67e3E+0x52>
  2034d3:	eb 0b                	jmp    2034e0 <_ZN38_$LT$core..option..Option$LT$T$GT$$GT$3map17hbf2415b2082f67e3E+0x50>
  2034d5:	48 c7 44 24 30 00 00 	mov    QWORD PTR [rsp+0x30],0x0
  2034dc:	00 00 
  2034de:	eb 40                	jmp    203520 <_ZN38_$LT$core..option..Option$LT$T$GT$$GT$3map17hbf2415b2082f67e3E+0x90>
  2034e0:	0f 0b                	ud2    
  2034e2:	c6 44 24 57 00       	mov    BYTE PTR [rsp+0x57],0x0
  2034e7:	48 8b 44 24 20       	mov    rax,QWORD PTR [rsp+0x20]
  2034ec:	48 89 44 24 40       	mov    QWORD PTR [rsp+0x40],rax
  2034f1:	c6 44 24 56 00       	mov    BYTE PTR [rsp+0x56],0x0
  2034f6:	48 8b 44 24 40       	mov    rax,QWORD PTR [rsp+0x40]
  2034fb:	48 89 44 24 48       	mov    QWORD PTR [rsp+0x48],rax
  203500:	48 8b 7c 24 48       	mov    rdi,QWORD PTR [rsp+0x48]
  203505:	e8 66 0a 00 00       	call   203f70 <_ZN11rust_kernel6memory15frame_allocator19FrameStackAllocator17first_free_region28_$u7b$$u7b$closure$u7d$$u7d$17h57699870883dcb7dE>
  20350a:	48 89 04 24          	mov    QWORD PTR [rsp],rax
  20350e:	48 8b 04 24          	mov    rax,QWORD PTR [rsp]
  203512:	48 89 44 24 38       	mov    QWORD PTR [rsp+0x38],rax
  203517:	48 c7 44 24 30 01 00 	mov    QWORD PTR [rsp+0x30],0x1
  20351e:	00 00 
  203520:	f6 44 24 56 01       	test   BYTE PTR [rsp+0x56],0x1
  203525:	75 0a                	jne    203531 <_ZN38_$LT$core..option..Option$LT$T$GT$$GT$3map17hbf2415b2082f67e3E+0xa1>
  203527:	48 83 7c 24 18 01    	cmp    QWORD PTR [rsp+0x18],0x1
  20352d:	74 18                	je     203547 <_ZN38_$LT$core..option..Option$LT$T$GT$$GT$3map17hbf2415b2082f67e3E+0xb7>
  20352f:	eb 24                	jmp    203555 <_ZN38_$LT$core..option..Option$LT$T$GT$$GT$3map17hbf2415b2082f67e3E+0xc5>
  203531:	c6 44 24 56 00       	mov    BYTE PTR [rsp+0x56],0x0
  203536:	eb ef                	jmp    203527 <_ZN38_$LT$core..option..Option$LT$T$GT$$GT$3map17hbf2415b2082f67e3E+0x97>
  203538:	48 8b 44 24 30       	mov    rax,QWORD PTR [rsp+0x30]
  20353d:	48 8b 54 24 38       	mov    rdx,QWORD PTR [rsp+0x38]
  203542:	48 83 c4 58          	add    rsp,0x58
  203546:	c3                   	ret    
  203547:	f6 44 24 57 01       	test   BYTE PTR [rsp+0x57],0x1
  20354c:	74 ea                	je     203538 <_ZN38_$LT$core..option..Option$LT$T$GT$$GT$3map17hbf2415b2082f67e3E+0xa8>
  20354e:	c6 44 24 57 00       	mov    BYTE PTR [rsp+0x57],0x0
  203553:	eb e3                	jmp    203538 <_ZN38_$LT$core..option..Option$LT$T$GT$$GT$3map17hbf2415b2082f67e3E+0xa8>
  203555:	eb e1                	jmp    203538 <_ZN38_$LT$core..option..Option$LT$T$GT$$GT$3map17hbf2415b2082f67e3E+0xa8>
  203557:	cc                   	int3   
  203558:	cc                   	int3   
  203559:	cc                   	int3   
  20355a:	cc                   	int3   
  20355b:	cc                   	int3   
  20355c:	cc                   	int3   
  20355d:	cc                   	int3   
  20355e:	cc                   	int3   
  20355f:	cc                   	int3   

0000000000203560 <_ZN38_$LT$core..option..Option$LT$T$GT$$GT$3map17hf85e69033fa78cb8E>:
  203560:	48 83 ec 58          	sub    rsp,0x58
  203564:	48 89 7c 24 18       	mov    QWORD PTR [rsp+0x18],rdi
  203569:	48 89 74 24 20       	mov    QWORD PTR [rsp+0x20],rsi
  20356e:	48 89 54 24 28       	mov    QWORD PTR [rsp+0x28],rdx
  203573:	c6 44 24 57 00       	mov    BYTE PTR [rsp+0x57],0x0
  203578:	c6 44 24 56 00       	mov    BYTE PTR [rsp+0x56],0x0
  20357d:	c6 44 24 57 01       	mov    BYTE PTR [rsp+0x57],0x1
  203582:	c6 44 24 56 01       	mov    BYTE PTR [rsp+0x56],0x1
  203587:	48 8b 54 24 18       	mov    rdx,QWORD PTR [rsp+0x18]
  20358c:	48 85 d2             	test   rdx,rdx
  20358f:	48 89 54 24 10       	mov    QWORD PTR [rsp+0x10],rdx
  203594:	74 14                	je     2035aa <_ZN38_$LT$core..option..Option$LT$T$GT$$GT$3map17hf85e69033fa78cb8E+0x4a>
  203596:	eb 00                	jmp    203598 <_ZN38_$LT$core..option..Option$LT$T$GT$$GT$3map17hf85e69033fa78cb8E+0x38>
  203598:	48 8b 44 24 10       	mov    rax,QWORD PTR [rsp+0x10]
  20359d:	48 83 e8 01          	sub    rax,0x1
  2035a1:	48 89 44 24 08       	mov    QWORD PTR [rsp+0x8],rax
  2035a6:	74 0f                	je     2035b7 <_ZN38_$LT$core..option..Option$LT$T$GT$$GT$3map17hf85e69033fa78cb8E+0x57>
  2035a8:	eb 0b                	jmp    2035b5 <_ZN38_$LT$core..option..Option$LT$T$GT$$GT$3map17hf85e69033fa78cb8E+0x55>
  2035aa:	48 c7 44 24 30 00 00 	mov    QWORD PTR [rsp+0x30],0x0
  2035b1:	00 00 
  2035b3:	eb 45                	jmp    2035fa <_ZN38_$LT$core..option..Option$LT$T$GT$$GT$3map17hf85e69033fa78cb8E+0x9a>
  2035b5:	0f 0b                	ud2    
  2035b7:	c6 44 24 57 00       	mov    BYTE PTR [rsp+0x57],0x0
  2035bc:	48 8b 44 24 20       	mov    rax,QWORD PTR [rsp+0x20]
  2035c1:	48 89 44 24 40       	mov    QWORD PTR [rsp+0x40],rax
  2035c6:	c6 44 24 56 00       	mov    BYTE PTR [rsp+0x56],0x0
  2035cb:	48 8b 7c 24 28       	mov    rdi,QWORD PTR [rsp+0x28]
  2035d0:	48 8b 44 24 40       	mov    rax,QWORD PTR [rsp+0x40]
  2035d5:	48 89 44 24 48       	mov    QWORD PTR [rsp+0x48],rax
  2035da:	48 8b 74 24 48       	mov    rsi,QWORD PTR [rsp+0x48]
  2035df:	e8 5c 28 00 00       	call   205e40 <_ZN91_$LT$core..slice..Iter$LT$$u27$a$C$$u20$T$GT$$u20$as$u20$core..iter..iterator..Iterator$GT$8position28_$u7b$$u7b$closure$u7d$$u7d$17h57d22e86c4e5b215E>
  2035e4:	48 89 04 24          	mov    QWORD PTR [rsp],rax
  2035e8:	48 8b 04 24          	mov    rax,QWORD PTR [rsp]
  2035ec:	48 89 44 24 38       	mov    QWORD PTR [rsp+0x38],rax
  2035f1:	48 c7 44 24 30 01 00 	mov    QWORD PTR [rsp+0x30],0x1
  2035f8:	00 00 
  2035fa:	f6 44 24 56 01       	test   BYTE PTR [rsp+0x56],0x1
  2035ff:	75 0a                	jne    20360b <_ZN38_$LT$core..option..Option$LT$T$GT$$GT$3map17hf85e69033fa78cb8E+0xab>
  203601:	48 83 7c 24 18 01    	cmp    QWORD PTR [rsp+0x18],0x1
  203607:	74 18                	je     203621 <_ZN38_$LT$core..option..Option$LT$T$GT$$GT$3map17hf85e69033fa78cb8E+0xc1>
  203609:	eb 24                	jmp    20362f <_ZN38_$LT$core..option..Option$LT$T$GT$$GT$3map17hf85e69033fa78cb8E+0xcf>
  20360b:	c6 44 24 56 00       	mov    BYTE PTR [rsp+0x56],0x0
  203610:	eb ef                	jmp    203601 <_ZN38_$LT$core..option..Option$LT$T$GT$$GT$3map17hf85e69033fa78cb8E+0xa1>
  203612:	48 8b 44 24 30       	mov    rax,QWORD PTR [rsp+0x30]
  203617:	48 8b 54 24 38       	mov    rdx,QWORD PTR [rsp+0x38]
  20361c:	48 83 c4 58          	add    rsp,0x58
  203620:	c3                   	ret    
  203621:	f6 44 24 57 01       	test   BYTE PTR [rsp+0x57],0x1
  203626:	74 ea                	je     203612 <_ZN38_$LT$core..option..Option$LT$T$GT$$GT$3map17hf85e69033fa78cb8E+0xb2>
  203628:	c6 44 24 57 00       	mov    BYTE PTR [rsp+0x57],0x0
  20362d:	eb e3                	jmp    203612 <_ZN38_$LT$core..option..Option$LT$T$GT$$GT$3map17hf85e69033fa78cb8E+0xb2>
  20362f:	eb e1                	jmp    203612 <_ZN38_$LT$core..option..Option$LT$T$GT$$GT$3map17hf85e69033fa78cb8E+0xb2>
  203631:	cc                   	int3   
  203632:	cc                   	int3   
  203633:	cc                   	int3   
  203634:	cc                   	int3   
  203635:	cc                   	int3   
  203636:	cc                   	int3   
  203637:	cc                   	int3   
  203638:	cc                   	int3   
  203639:	cc                   	int3   
  20363a:	cc                   	int3   
  20363b:	cc                   	int3   
  20363c:	cc                   	int3   
  20363d:	cc                   	int3   
  20363e:	cc                   	int3   
  20363f:	cc                   	int3   

0000000000203640 <_ZN38_$LT$core..option..Option$LT$T$GT$$GT$6expect17h577682cffd3d6263E>:
  203640:	48 83 ec 48          	sub    rsp,0x48
  203644:	48 89 7c 24 20       	mov    QWORD PTR [rsp+0x20],rdi
  203649:	48 89 74 24 28       	mov    QWORD PTR [rsp+0x28],rsi
  20364e:	48 89 54 24 30       	mov    QWORD PTR [rsp+0x30],rdx
  203653:	48 89 4c 24 38       	mov    QWORD PTR [rsp+0x38],rcx
  203658:	48 8b 4c 24 20       	mov    rcx,QWORD PTR [rsp+0x20]
  20365d:	48 85 c9             	test   rcx,rcx
  203660:	48 89 4c 24 18       	mov    QWORD PTR [rsp+0x18],rcx
  203665:	74 14                	je     20367b <_ZN38_$LT$core..option..Option$LT$T$GT$$GT$6expect17h577682cffd3d6263E+0x3b>
  203667:	eb 00                	jmp    203669 <_ZN38_$LT$core..option..Option$LT$T$GT$$GT$6expect17h577682cffd3d6263E+0x29>
  203669:	48 8b 44 24 18       	mov    rax,QWORD PTR [rsp+0x18]
  20366e:	48 83 e8 01          	sub    rax,0x1
  203672:	48 89 44 24 10       	mov    QWORD PTR [rsp+0x10],rax
  203677:	74 15                	je     20368e <_ZN38_$LT$core..option..Option$LT$T$GT$$GT$6expect17h577682cffd3d6263E+0x4e>
  203679:	eb 11                	jmp    20368c <_ZN38_$LT$core..option..Option$LT$T$GT$$GT$6expect17h577682cffd3d6263E+0x4c>
  20367b:	48 8b 7c 24 30       	mov    rdi,QWORD PTR [rsp+0x30]
  203680:	48 8b 74 24 38       	mov    rsi,QWORD PTR [rsp+0x38]
  203685:	e8 96 0b 01 00       	call   214220 <_ZN4core6option13expect_failed17hf2f836e074393d32E>
  20368a:	0f 0b                	ud2    
  20368c:	0f 0b                	ud2    
  20368e:	48 8b 44 24 28       	mov    rax,QWORD PTR [rsp+0x28]
  203693:	48 89 44 24 40       	mov    QWORD PTR [rsp+0x40],rax
  203698:	48 8b 44 24 40       	mov    rax,QWORD PTR [rsp+0x40]
  20369d:	48 83 7c 24 20 01    	cmp    QWORD PTR [rsp+0x20],0x1
  2036a3:	48 89 44 24 08       	mov    QWORD PTR [rsp+0x8],rax
  2036a8:	75 0a                	jne    2036b4 <_ZN38_$LT$core..option..Option$LT$T$GT$$GT$6expect17h577682cffd3d6263E+0x74>
  2036aa:	48 8b 44 24 08       	mov    rax,QWORD PTR [rsp+0x8]
  2036af:	48 83 c4 48          	add    rsp,0x48
  2036b3:	c3                   	ret    
  2036b4:	eb f4                	jmp    2036aa <_ZN38_$LT$core..option..Option$LT$T$GT$$GT$6expect17h577682cffd3d6263E+0x6a>
  2036b6:	cc                   	int3   
  2036b7:	cc                   	int3   
  2036b8:	cc                   	int3   
  2036b9:	cc                   	int3   
  2036ba:	cc                   	int3   
  2036bb:	cc                   	int3   
  2036bc:	cc                   	int3   
  2036bd:	cc                   	int3   
  2036be:	cc                   	int3   
  2036bf:	cc                   	int3   

00000000002036c0 <_ZN38_$LT$core..option..Option$LT$T$GT$$GT$6unwrap17h9110b18cb87c5373E>:
  2036c0:	48 83 ec 28          	sub    rsp,0x28
  2036c4:	48 89 7c 24 18       	mov    QWORD PTR [rsp+0x18],rdi
  2036c9:	48 8b 7c 24 18       	mov    rdi,QWORD PTR [rsp+0x18]
  2036ce:	48 85 ff             	test   rdi,rdi
  2036d1:	0f 95 c0             	setne  al
  2036d4:	0f b6 c8             	movzx  ecx,al
  2036d7:	89 cf                	mov    edi,ecx
  2036d9:	48 89 7c 24 10       	mov    QWORD PTR [rsp+0x10],rdi
  2036de:	74 14                	je     2036f4 <_ZN38_$LT$core..option..Option$LT$T$GT$$GT$6unwrap17h9110b18cb87c5373E+0x34>
  2036e0:	eb 00                	jmp    2036e2 <_ZN38_$LT$core..option..Option$LT$T$GT$$GT$6unwrap17h9110b18cb87c5373E+0x22>
  2036e2:	48 8b 44 24 10       	mov    rax,QWORD PTR [rsp+0x10]
  2036e7:	48 83 e8 01          	sub    rax,0x1
  2036eb:	48 89 44 24 08       	mov    QWORD PTR [rsp+0x8],rax
  2036f0:	74 12                	je     203704 <_ZN38_$LT$core..option..Option$LT$T$GT$$GT$6unwrap17h9110b18cb87c5373E+0x44>
  2036f2:	eb 0e                	jmp    203702 <_ZN38_$LT$core..option..Option$LT$T$GT$$GT$6unwrap17h9110b18cb87c5373E+0x42>
  2036f4:	48 8d 3d 35 39 01 00 	lea    rdi,[rip+0x13935]        # 217030 <_ZN11rust_kernel3vga6writer6WRITER17h25e0541f3f3878f2E+0x1000>
  2036fb:	e8 d0 09 01 00       	call   2140d0 <_ZN4core9panicking5panic17h8e7eea3eb5c7908eE>
  203700:	0f 0b                	ud2    
  203702:	0f 0b                	ud2    
  203704:	b8 01 00 00 00       	mov    eax,0x1
  203709:	89 c1                	mov    ecx,eax
  20370b:	31 c0                	xor    eax,eax
  20370d:	89 c2                	mov    edx,eax
  20370f:	48 8b 74 24 18       	mov    rsi,QWORD PTR [rsp+0x18]
  203714:	48 89 74 24 20       	mov    QWORD PTR [rsp+0x20],rsi
  203719:	48 8b 44 24 20       	mov    rax,QWORD PTR [rsp+0x20]
  20371e:	48 83 7c 24 18 00    	cmp    QWORD PTR [rsp+0x18],0x0
  203724:	48 0f 44 ca          	cmove  rcx,rdx
  203728:	48 83 f9 01          	cmp    rcx,0x1
  20372c:	48 89 04 24          	mov    QWORD PTR [rsp],rax
  203730:	75 09                	jne    20373b <_ZN38_$LT$core..option..Option$LT$T$GT$$GT$6unwrap17h9110b18cb87c5373E+0x7b>
  203732:	48 8b 04 24          	mov    rax,QWORD PTR [rsp]
  203736:	48 83 c4 28          	add    rsp,0x28
  20373a:	c3                   	ret    
  20373b:	eb f5                	jmp    203732 <_ZN38_$LT$core..option..Option$LT$T$GT$$GT$6unwrap17h9110b18cb87c5373E+0x72>
  20373d:	cc                   	int3   
  20373e:	cc                   	int3   
  20373f:	cc                   	int3   

0000000000203740 <_ZN38_$LT$core..option..Option$LT$T$GT$$GT$6unwrap17hb3d5c55db6c54586E>:
  203740:	48 83 ec 28          	sub    rsp,0x28
  203744:	48 8b 07             	mov    rax,QWORD PTR [rdi]
  203747:	48 85 c0             	test   rax,rax
  20374a:	48 89 7c 24 10       	mov    QWORD PTR [rsp+0x10],rdi
  20374f:	48 89 44 24 08       	mov    QWORD PTR [rsp+0x8],rax
  203754:	74 13                	je     203769 <_ZN38_$LT$core..option..Option$LT$T$GT$$GT$6unwrap17hb3d5c55db6c54586E+0x29>
  203756:	eb 00                	jmp    203758 <_ZN38_$LT$core..option..Option$LT$T$GT$$GT$6unwrap17hb3d5c55db6c54586E+0x18>
  203758:	48 8b 44 24 08       	mov    rax,QWORD PTR [rsp+0x8]
  20375d:	48 83 e8 01          	sub    rax,0x1
  203761:	48 89 04 24          	mov    QWORD PTR [rsp],rax
  203765:	74 12                	je     203779 <_ZN38_$LT$core..option..Option$LT$T$GT$$GT$6unwrap17hb3d5c55db6c54586E+0x39>
  203767:	eb 0e                	jmp    203777 <_ZN38_$LT$core..option..Option$LT$T$GT$$GT$6unwrap17hb3d5c55db6c54586E+0x37>
  203769:	48 8d 3d c0 38 01 00 	lea    rdi,[rip+0x138c0]        # 217030 <_ZN11rust_kernel3vga6writer6WRITER17h25e0541f3f3878f2E+0x1000>
  203770:	e8 5b 09 01 00       	call   2140d0 <_ZN4core9panicking5panic17h8e7eea3eb5c7908eE>
  203775:	0f 0b                	ud2    
  203777:	0f 0b                	ud2    
  203779:	48 8b 44 24 10       	mov    rax,QWORD PTR [rsp+0x10]
  20377e:	48 8b 48 08          	mov    rcx,QWORD PTR [rax+0x8]
  203782:	48 89 4c 24 20       	mov    QWORD PTR [rsp+0x20],rcx
  203787:	48 8b 4c 24 20       	mov    rcx,QWORD PTR [rsp+0x20]
  20378c:	48 89 4c 24 18       	mov    QWORD PTR [rsp+0x18],rcx
  203791:	48 83 38 01          	cmp    QWORD PTR [rax],0x1
  203795:	75 0a                	jne    2037a1 <_ZN38_$LT$core..option..Option$LT$T$GT$$GT$6unwrap17hb3d5c55db6c54586E+0x61>
  203797:	48 8b 44 24 18       	mov    rax,QWORD PTR [rsp+0x18]
  20379c:	48 83 c4 28          	add    rsp,0x28
  2037a0:	c3                   	ret    
  2037a1:	eb f4                	jmp    203797 <_ZN38_$LT$core..option..Option$LT$T$GT$$GT$6unwrap17hb3d5c55db6c54586E+0x57>
  2037a3:	cc                   	int3   
  2037a4:	cc                   	int3   
  2037a5:	cc                   	int3   
  2037a6:	cc                   	int3   
  2037a7:	cc                   	int3   
  2037a8:	cc                   	int3   
  2037a9:	cc                   	int3   
  2037aa:	cc                   	int3   
  2037ab:	cc                   	int3   
  2037ac:	cc                   	int3   
  2037ad:	cc                   	int3   
  2037ae:	cc                   	int3   
  2037af:	cc                   	int3   

00000000002037b0 <_ZN53_$LT$core..option..Option$LT$$RF$$u27$a$u20$T$GT$$GT$6cloned17h1100559061f57c0bE>:
  2037b0:	48 83 ec 18          	sub    rsp,0x18
  2037b4:	48 89 7c 24 08       	mov    QWORD PTR [rsp+0x8],rdi
  2037b9:	48 8b 7c 24 08       	mov    rdi,QWORD PTR [rsp+0x8]
  2037be:	e8 ed fb ff ff       	call   2033b0 <_ZN38_$LT$core..option..Option$LT$T$GT$$GT$3map17h8fdc6388876e7736E>
  2037c3:	88 44 24 07          	mov    BYTE PTR [rsp+0x7],al
  2037c7:	88 54 24 06          	mov    BYTE PTR [rsp+0x6],dl
  2037cb:	8a 44 24 07          	mov    al,BYTE PTR [rsp+0x7]
  2037cf:	24 01                	and    al,0x1
  2037d1:	8a 54 24 06          	mov    dl,BYTE PTR [rsp+0x6]
  2037d5:	48 83 c4 18          	add    rsp,0x18
  2037d9:	c3                   	ret    
  2037da:	cc                   	int3   
  2037db:	cc                   	int3   
  2037dc:	cc                   	int3   
  2037dd:	cc                   	int3   
  2037de:	cc                   	int3   
  2037df:	cc                   	int3   

00000000002037e0 <_ZN53_$LT$core..option..Option$LT$$RF$$u27$a$u20$T$GT$$GT$6cloned28_$u7b$$u7b$closure$u7d$$u7d$17h8c7883944b460280E>:
  2037e0:	48 83 ec 18          	sub    rsp,0x18
  2037e4:	48 89 7c 24 10       	mov    QWORD PTR [rsp+0x10],rdi
  2037e9:	48 8b 7c 24 10       	mov    rdi,QWORD PTR [rsp+0x10]
  2037ee:	e8 ad fb ff ff       	call   2033a0 <_ZN4core5clone5impls51_$LT$impl$u20$core..clone..Clone$u20$for$u20$u8$GT$5clone17ha0fce3b0624c3cd6E>
  2037f3:	88 44 24 07          	mov    BYTE PTR [rsp+0x7],al
  2037f7:	8a 44 24 07          	mov    al,BYTE PTR [rsp+0x7]
  2037fb:	48 83 c4 18          	add    rsp,0x18
  2037ff:	c3                   	ret    

0000000000203800 <_ZN50_$LT$$RF$mut$u20$T$u20$as$u20$core..fmt..Debug$GT$3fmt17h10167e6b25bcd79bE>:
  203800:	48 83 ec 18          	sub    rsp,0x18
  203804:	48 89 7c 24 08       	mov    QWORD PTR [rsp+0x8],rdi
  203809:	48 89 74 24 10       	mov    QWORD PTR [rsp+0x10],rsi
  20380e:	48 8b 74 24 08       	mov    rsi,QWORD PTR [rsp+0x8]
  203813:	48 8b 3e             	mov    rdi,QWORD PTR [rsi]
  203816:	48 8b 74 24 10       	mov    rsi,QWORD PTR [rsp+0x10]
  20381b:	e8 c0 9b 00 00       	call   20d3e0 <_ZN81_$LT$x86_64..structures..idt..ExceptionStackFrame$u20$as$u20$core..fmt..Debug$GT$3fmt17h39b6e7a010917e64E>
  203820:	88 44 24 07          	mov    BYTE PTR [rsp+0x7],al
  203824:	8a 44 24 07          	mov    al,BYTE PTR [rsp+0x7]
  203828:	24 01                	and    al,0x1
  20382a:	0f b6 c0             	movzx  eax,al
  20382d:	48 83 c4 18          	add    rsp,0x18
  203831:	c3                   	ret    
  203832:	cc                   	int3   
  203833:	cc                   	int3   
  203834:	cc                   	int3   
  203835:	cc                   	int3   
  203836:	cc                   	int3   
  203837:	cc                   	int3   
  203838:	cc                   	int3   
  203839:	cc                   	int3   
  20383a:	cc                   	int3   
  20383b:	cc                   	int3   
  20383c:	cc                   	int3   
  20383d:	cc                   	int3   
  20383e:	cc                   	int3   
  20383f:	cc                   	int3   

0000000000203840 <_ZN11rust_kernel3vga6buffer9VGABuffer5width17ha8efffc0c444ca44E>:
  203840:	50                   	push   rax
  203841:	48 89 3c 24          	mov    QWORD PTR [rsp],rdi
  203845:	48 8b 3c 24          	mov    rdi,QWORD PTR [rsp]
  203849:	48 8b 47 08          	mov    rax,QWORD PTR [rdi+0x8]
  20384d:	59                   	pop    rcx
  20384e:	c3                   	ret    
  20384f:	cc                   	int3   

0000000000203850 <_ZN11rust_kernel3vga6buffer9VGABuffer6height17h1900ff7d3c4a8f04E>:
  203850:	50                   	push   rax
  203851:	48 89 3c 24          	mov    QWORD PTR [rsp],rdi
  203855:	48 8b 3c 24          	mov    rdi,QWORD PTR [rsp]
  203859:	48 8b 47 10          	mov    rax,QWORD PTR [rdi+0x10]
  20385d:	59                   	pop    rcx
  20385e:	c3                   	ret    
  20385f:	cc                   	int3   

0000000000203860 <_ZN11rust_kernel3vga6buffer9VGABuffer8put_char17h14d88e8db7e5824dE>:
  203860:	48 81 ec 98 00 00 00 	sub    rsp,0x98
  203867:	44 88 c8             	mov    al,r9b
  20386a:	45 88 c2             	mov    r10b,r8b
  20386d:	41 88 cb             	mov    r11b,cl
  203870:	48 89 7c 24 70       	mov    QWORD PTR [rsp+0x70],rdi
  203875:	48 89 74 24 78       	mov    QWORD PTR [rsp+0x78],rsi
  20387a:	48 89 94 24 80 00 00 	mov    QWORD PTR [rsp+0x80],rdx
  203881:	00 
  203882:	44 88 9c 24 8c 00 00 	mov    BYTE PTR [rsp+0x8c],r11b
  203889:	00 
  20388a:	44 88 94 24 8d 00 00 	mov    BYTE PTR [rsp+0x8d],r10b
  203891:	00 
  203892:	88 84 24 8e 00 00 00 	mov    BYTE PTR [rsp+0x8e],al
  203899:	48 8b 54 24 78       	mov    rdx,QWORD PTR [rsp+0x78]
  20389e:	48 8b 74 24 70       	mov    rsi,QWORD PTR [rsp+0x70]
  2038a3:	48 3b 56 08          	cmp    rdx,QWORD PTR [rsi+0x8]
  2038a7:	72 14                	jb     2038bd <_ZN11rust_kernel3vga6buffer9VGABuffer8put_char17h14d88e8db7e5824dE+0x5d>
  2038a9:	c6 84 24 8f 00 00 00 	mov    BYTE PTR [rsp+0x8f],0x1
  2038b0:	01 
  2038b1:	eb 1f                	jmp    2038d2 <_ZN11rust_kernel3vga6buffer9VGABuffer8put_char17h14d88e8db7e5824dE+0x72>
  2038b3:	c6 84 24 8f 00 00 00 	mov    BYTE PTR [rsp+0x8f],0x0
  2038ba:	00 
  2038bb:	eb 15                	jmp    2038d2 <_ZN11rust_kernel3vga6buffer9VGABuffer8put_char17h14d88e8db7e5824dE+0x72>
  2038bd:	48 8b 84 24 80 00 00 	mov    rax,QWORD PTR [rsp+0x80]
  2038c4:	00 
  2038c5:	48 8b 4c 24 70       	mov    rcx,QWORD PTR [rsp+0x70]
  2038ca:	48 3b 41 10          	cmp    rax,QWORD PTR [rcx+0x10]
  2038ce:	73 d9                	jae    2038a9 <_ZN11rust_kernel3vga6buffer9VGABuffer8put_char17h14d88e8db7e5824dE+0x49>
  2038d0:	eb e1                	jmp    2038b3 <_ZN11rust_kernel3vga6buffer9VGABuffer8put_char17h14d88e8db7e5824dE+0x53>
  2038d2:	f6 84 24 8f 00 00 00 	test   BYTE PTR [rsp+0x8f],0x1
  2038d9:	01 
  2038da:	74 0e                	je     2038ea <_ZN11rust_kernel3vga6buffer9VGABuffer8put_char17h14d88e8db7e5824dE+0x8a>
  2038dc:	48 8d 3d 75 37 01 00 	lea    rdi,[rip+0x13775]        # 217058 <_ZN11rust_kernel3vga6writer6WRITER17h25e0541f3f3878f2E+0x1028>
  2038e3:	e8 e8 07 01 00       	call   2140d0 <_ZN4core9panicking5panic17h8e7eea3eb5c7908eE>
  2038e8:	0f 0b                	ud2    
  2038ea:	48 8b 84 24 80 00 00 	mov    rax,QWORD PTR [rsp+0x80]
  2038f1:	00 
  2038f2:	48 8b 4c 24 70       	mov    rcx,QWORD PTR [rsp+0x70]
  2038f7:	48 f7 61 08          	mul    QWORD PTR [rcx+0x8]
  2038fb:	40 0f 90 c6          	seto   sil
  2038ff:	40 f6 c6 01          	test   sil,0x1
  203903:	48 89 44 24 68       	mov    QWORD PTR [rsp+0x68],rax
  203908:	0f 85 25 01 00 00    	jne    203a33 <_ZN11rust_kernel3vga6buffer9VGABuffer8put_char17h14d88e8db7e5824dE+0x1d3>
  20390e:	48 8b 44 24 68       	mov    rax,QWORD PTR [rsp+0x68]
  203913:	48 03 44 24 78       	add    rax,QWORD PTR [rsp+0x78]
  203918:	0f 92 c1             	setb   cl
  20391b:	f6 c1 01             	test   cl,0x1
  20391e:	48 89 44 24 60       	mov    QWORD PTR [rsp+0x60],rax
  203923:	0f 85 18 01 00 00    	jne    203a41 <_ZN11rust_kernel3vga6buffer9VGABuffer8put_char17h14d88e8db7e5824dE+0x1e1>
  203929:	b8 02 00 00 00       	mov    eax,0x2
  20392e:	89 c1                	mov    ecx,eax
  203930:	48 8b 54 24 60       	mov    rdx,QWORD PTR [rsp+0x60]
  203935:	48 89 94 24 90 00 00 	mov    QWORD PTR [rsp+0x90],rdx
  20393c:	00 
  20393d:	40 8a b4 24 8c 00 00 	mov    sil,BYTE PTR [rsp+0x8c]
  203944:	00 
  203945:	48 8b 7c 24 70       	mov    rdi,QWORD PTR [rsp+0x70]
  20394a:	48 8b 3f             	mov    rdi,QWORD PTR [rdi]
  20394d:	48 0f af 8c 24 90 00 	imul   rcx,QWORD PTR [rsp+0x90]
  203954:	00 00 
  203956:	41 0f 90 c0          	seto   r8b
  20395a:	41 f6 c0 01          	test   r8b,0x1
  20395e:	48 89 7c 24 58       	mov    QWORD PTR [rsp+0x58],rdi
  203963:	40 88 74 24 57       	mov    BYTE PTR [rsp+0x57],sil
  203968:	48 89 4c 24 48       	mov    QWORD PTR [rsp+0x48],rcx
  20396d:	0f 85 dc 00 00 00    	jne    203a4f <_ZN11rust_kernel3vga6buffer9VGABuffer8put_char17h14d88e8db7e5824dE+0x1ef>
  203973:	48 8b 44 24 48       	mov    rax,QWORD PTR [rsp+0x48]
  203978:	48 83 c0 00          	add    rax,0x0
  20397c:	0f 90 c1             	seto   cl
  20397f:	f6 c1 01             	test   cl,0x1
  203982:	48 89 44 24 40       	mov    QWORD PTR [rsp+0x40],rax
  203987:	0f 85 d0 00 00 00    	jne    203a5d <_ZN11rust_kernel3vga6buffer9VGABuffer8put_char17h14d88e8db7e5824dE+0x1fd>
  20398d:	48 8b 7c 24 58       	mov    rdi,QWORD PTR [rsp+0x58]
  203992:	48 8b 74 24 40       	mov    rsi,QWORD PTR [rsp+0x40]
  203997:	e8 b4 c2 00 00       	call   20fc50 <_ZN4core3ptr31_$LT$impl$u20$$BP$mut$u20$T$GT$6offset17h529946b0efd4a962E>
  20399c:	48 89 44 24 38       	mov    QWORD PTR [rsp+0x38],rax
  2039a1:	48 8b 44 24 38       	mov    rax,QWORD PTR [rsp+0x38]
  2039a6:	8a 4c 24 57          	mov    cl,BYTE PTR [rsp+0x57]
  2039aa:	88 08                	mov    BYTE PTR [rax],cl
  2039ac:	8a 94 24 8d 00 00 00 	mov    dl,BYTE PTR [rsp+0x8d]
  2039b3:	c0 e2 04             	shl    dl,0x4
  2039b6:	88 54 24 37          	mov    BYTE PTR [rsp+0x37],dl
  2039ba:	b8 02 00 00 00       	mov    eax,0x2
  2039bf:	89 c1                	mov    ecx,eax
  2039c1:	8a 94 24 8e 00 00 00 	mov    dl,BYTE PTR [rsp+0x8e]
  2039c8:	48 8b 74 24 70       	mov    rsi,QWORD PTR [rsp+0x70]
  2039cd:	48 8b 3e             	mov    rdi,QWORD PTR [rsi]
  2039d0:	48 0f af 8c 24 90 00 	imul   rcx,QWORD PTR [rsp+0x90]
  2039d7:	00 00 
  2039d9:	41 0f 90 c0          	seto   r8b
  2039dd:	41 f6 c0 01          	test   r8b,0x1
  2039e1:	48 89 7c 24 28       	mov    QWORD PTR [rsp+0x28],rdi
  2039e6:	88 54 24 27          	mov    BYTE PTR [rsp+0x27],dl
  2039ea:	48 89 4c 24 18       	mov    QWORD PTR [rsp+0x18],rcx
  2039ef:	75 7a                	jne    203a6b <_ZN11rust_kernel3vga6buffer9VGABuffer8put_char17h14d88e8db7e5824dE+0x20b>
  2039f1:	48 8b 44 24 18       	mov    rax,QWORD PTR [rsp+0x18]
  2039f6:	48 ff c0             	inc    rax
  2039f9:	0f 90 c1             	seto   cl
  2039fc:	f6 c1 01             	test   cl,0x1
  2039ff:	48 89 44 24 10       	mov    QWORD PTR [rsp+0x10],rax
  203a04:	75 73                	jne    203a79 <_ZN11rust_kernel3vga6buffer9VGABuffer8put_char17h14d88e8db7e5824dE+0x219>
  203a06:	48 8b 7c 24 28       	mov    rdi,QWORD PTR [rsp+0x28]
  203a0b:	48 8b 74 24 10       	mov    rsi,QWORD PTR [rsp+0x10]
  203a10:	e8 3b c2 00 00       	call   20fc50 <_ZN4core3ptr31_$LT$impl$u20$$BP$mut$u20$T$GT$6offset17h529946b0efd4a962E>
  203a15:	48 89 44 24 08       	mov    QWORD PTR [rsp+0x8],rax
  203a1a:	8a 44 24 37          	mov    al,BYTE PTR [rsp+0x37]
  203a1e:	8a 4c 24 27          	mov    cl,BYTE PTR [rsp+0x27]
  203a22:	08 c8                	or     al,cl
  203a24:	48 8b 54 24 08       	mov    rdx,QWORD PTR [rsp+0x8]
  203a29:	88 02                	mov    BYTE PTR [rdx],al
  203a2b:	48 81 c4 98 00 00 00 	add    rsp,0x98
  203a32:	c3                   	ret    
  203a33:	48 8d 3d 46 36 01 00 	lea    rdi,[rip+0x13646]        # 217080 <_ZN11rust_kernel3vga6writer6WRITER17h25e0541f3f3878f2E+0x1050>
  203a3a:	e8 91 06 01 00       	call   2140d0 <_ZN4core9panicking5panic17h8e7eea3eb5c7908eE>
  203a3f:	0f 0b                	ud2    
  203a41:	48 8d 3d 60 36 01 00 	lea    rdi,[rip+0x13660]        # 2170a8 <_ZN11rust_kernel3vga6writer6WRITER17h25e0541f3f3878f2E+0x1078>
  203a48:	e8 83 06 01 00       	call   2140d0 <_ZN4core9panicking5panic17h8e7eea3eb5c7908eE>
  203a4d:	0f 0b                	ud2    
  203a4f:	48 8d 3d 7a 36 01 00 	lea    rdi,[rip+0x1367a]        # 2170d0 <_ZN11rust_kernel3vga6writer6WRITER17h25e0541f3f3878f2E+0x10a0>
  203a56:	e8 75 06 01 00       	call   2140d0 <_ZN4core9panicking5panic17h8e7eea3eb5c7908eE>
  203a5b:	0f 0b                	ud2    
  203a5d:	48 8d 3d 94 36 01 00 	lea    rdi,[rip+0x13694]        # 2170f8 <_ZN11rust_kernel3vga6writer6WRITER17h25e0541f3f3878f2E+0x10c8>
  203a64:	e8 67 06 01 00       	call   2140d0 <_ZN4core9panicking5panic17h8e7eea3eb5c7908eE>
  203a69:	0f 0b                	ud2    
  203a6b:	48 8d 3d ae 36 01 00 	lea    rdi,[rip+0x136ae]        # 217120 <_ZN11rust_kernel3vga6writer6WRITER17h25e0541f3f3878f2E+0x10f0>
  203a72:	e8 59 06 01 00       	call   2140d0 <_ZN4core9panicking5panic17h8e7eea3eb5c7908eE>
  203a77:	0f 0b                	ud2    
  203a79:	48 8d 3d c8 36 01 00 	lea    rdi,[rip+0x136c8]        # 217148 <_ZN11rust_kernel3vga6writer6WRITER17h25e0541f3f3878f2E+0x1118>
  203a80:	e8 4b 06 01 00       	call   2140d0 <_ZN4core9panicking5panic17h8e7eea3eb5c7908eE>
  203a85:	0f 0b                	ud2    
  203a87:	cc                   	int3   
  203a88:	cc                   	int3   
  203a89:	cc                   	int3   
  203a8a:	cc                   	int3   
  203a8b:	cc                   	int3   
  203a8c:	cc                   	int3   
  203a8d:	cc                   	int3   
  203a8e:	cc                   	int3   
  203a8f:	cc                   	int3   

0000000000203a90 <_ZN11rust_kernel3vga6buffer9VGABuffer10clear_line17h29f17e578ee4d3f0E>:
  203a90:	48 81 ec f8 00 00 00 	sub    rsp,0xf8
  203a97:	88 d0                	mov    al,dl
  203a99:	48 89 bc 24 88 00 00 	mov    QWORD PTR [rsp+0x88],rdi
  203aa0:	00 
  203aa1:	48 89 b4 24 90 00 00 	mov    QWORD PTR [rsp+0x90],rsi
  203aa8:	00 
  203aa9:	88 84 24 9e 00 00 00 	mov    BYTE PTR [rsp+0x9e],al
  203ab0:	8a 84 24 9e 00 00 00 	mov    al,BYTE PTR [rsp+0x9e]
  203ab7:	c0 e0 04             	shl    al,0x4
  203aba:	88 84 24 87 00 00 00 	mov    BYTE PTR [rsp+0x87],al
  203ac1:	8a 84 24 87 00 00 00 	mov    al,BYTE PTR [rsp+0x87]
  203ac8:	88 84 24 9f 00 00 00 	mov    BYTE PTR [rsp+0x9f],al
  203acf:	48 8b 8c 24 90 00 00 	mov    rcx,QWORD PTR [rsp+0x90]
  203ad6:	00 
  203ad7:	48 c7 84 24 a8 00 00 	mov    QWORD PTR [rsp+0xa8],0x0
  203ade:	00 00 00 00 00 
  203ae3:	48 89 8c 24 b0 00 00 	mov    QWORD PTR [rsp+0xb0],rcx
  203aea:	00 
  203aeb:	48 8b bc 24 a8 00 00 	mov    rdi,QWORD PTR [rsp+0xa8]
  203af2:	00 
  203af3:	48 8b b4 24 b0 00 00 	mov    rsi,QWORD PTR [rsp+0xb0]
  203afa:	00 
  203afb:	e8 50 c3 00 00       	call   20fe50 <_ZN54_$LT$I$u20$as$u20$core..iter..traits..IntoIterator$GT$9into_iter17h56ac6af66f4e3063E>
  203b00:	48 89 44 24 78       	mov    QWORD PTR [rsp+0x78],rax
  203b05:	48 89 54 24 70       	mov    QWORD PTR [rsp+0x70],rdx
  203b0a:	48 8b 44 24 78       	mov    rax,QWORD PTR [rsp+0x78]
  203b0f:	48 89 84 24 b8 00 00 	mov    QWORD PTR [rsp+0xb8],rax
  203b16:	00 
  203b17:	48 8b 4c 24 70       	mov    rcx,QWORD PTR [rsp+0x70]
  203b1c:	48 89 8c 24 c0 00 00 	mov    QWORD PTR [rsp+0xc0],rcx
  203b23:	00 
  203b24:	48 8d bc 24 b8 00 00 	lea    rdi,[rsp+0xb8]
  203b2b:	00 
  203b2c:	e8 3f c2 00 00       	call   20fd70 <_ZN4core4iter5range93_$LT$impl$u20$core..iter..iterator..Iterator$u20$for$u20$core..ops..range..Range$LT$A$GT$$GT$4next17hd144750dacd6125aE>
  203b31:	48 89 94 24 d8 00 00 	mov    QWORD PTR [rsp+0xd8],rdx
  203b38:	00 
  203b39:	48 89 84 24 d0 00 00 	mov    QWORD PTR [rsp+0xd0],rax
  203b40:	00 
  203b41:	48 8b 84 24 d0 00 00 	mov    rax,QWORD PTR [rsp+0xd0]
  203b48:	00 
  203b49:	48 85 c0             	test   rax,rax
  203b4c:	48 89 44 24 68       	mov    QWORD PTR [rsp+0x68],rax
  203b51:	74 14                	je     203b67 <_ZN11rust_kernel3vga6buffer9VGABuffer10clear_line17h29f17e578ee4d3f0E+0xd7>
  203b53:	eb 00                	jmp    203b55 <_ZN11rust_kernel3vga6buffer9VGABuffer10clear_line17h29f17e578ee4d3f0E+0xc5>
  203b55:	48 8b 44 24 68       	mov    rax,QWORD PTR [rsp+0x68]
  203b5a:	48 83 e8 01          	sub    rax,0x1
  203b5e:	48 89 44 24 60       	mov    QWORD PTR [rsp+0x60],rax
  203b63:	74 0c                	je     203b71 <_ZN11rust_kernel3vga6buffer9VGABuffer10clear_line17h29f17e578ee4d3f0E+0xe1>
  203b65:	eb 08                	jmp    203b6f <_ZN11rust_kernel3vga6buffer9VGABuffer10clear_line17h29f17e578ee4d3f0E+0xdf>
  203b67:	48 81 c4 f8 00 00 00 	add    rsp,0xf8
  203b6e:	c3                   	ret    
  203b6f:	0f 0b                	ud2    
  203b71:	48 8b 84 24 d8 00 00 	mov    rax,QWORD PTR [rsp+0xd8]
  203b78:	00 
  203b79:	48 89 84 24 e0 00 00 	mov    QWORD PTR [rsp+0xe0],rax
  203b80:	00 
  203b81:	48 8b 84 24 e0 00 00 	mov    rax,QWORD PTR [rsp+0xe0]
  203b88:	00 
  203b89:	48 89 84 24 c8 00 00 	mov    QWORD PTR [rsp+0xc8],rax
  203b90:	00 
  203b91:	48 8b 84 24 c8 00 00 	mov    rax,QWORD PTR [rsp+0xc8]
  203b98:	00 
  203b99:	48 89 84 24 e8 00 00 	mov    QWORD PTR [rsp+0xe8],rax
  203ba0:	00 
  203ba1:	48 8b 84 24 90 00 00 	mov    rax,QWORD PTR [rsp+0x90]
  203ba8:	00 
  203ba9:	48 8b 8c 24 88 00 00 	mov    rcx,QWORD PTR [rsp+0x88]
  203bb0:	00 
  203bb1:	48 f7 61 08          	mul    QWORD PTR [rcx+0x8]
  203bb5:	40 0f 90 c6          	seto   sil
  203bb9:	40 f6 c6 01          	test   sil,0x1
  203bbd:	48 89 44 24 58       	mov    QWORD PTR [rsp+0x58],rax
  203bc2:	0f 85 09 01 00 00    	jne    203cd1 <_ZN11rust_kernel3vga6buffer9VGABuffer10clear_line17h29f17e578ee4d3f0E+0x241>
  203bc8:	48 8b 44 24 58       	mov    rax,QWORD PTR [rsp+0x58]
  203bcd:	48 03 84 24 e8 00 00 	add    rax,QWORD PTR [rsp+0xe8]
  203bd4:	00 
  203bd5:	0f 92 c1             	setb   cl
  203bd8:	f6 c1 01             	test   cl,0x1
  203bdb:	48 89 44 24 50       	mov    QWORD PTR [rsp+0x50],rax
  203be0:	0f 85 f9 00 00 00    	jne    203cdf <_ZN11rust_kernel3vga6buffer9VGABuffer10clear_line17h29f17e578ee4d3f0E+0x24f>
  203be6:	b8 02 00 00 00       	mov    eax,0x2
  203beb:	89 c1                	mov    ecx,eax
  203bed:	48 8b 54 24 50       	mov    rdx,QWORD PTR [rsp+0x50]
  203bf2:	48 89 94 24 f0 00 00 	mov    QWORD PTR [rsp+0xf0],rdx
  203bf9:	00 
  203bfa:	48 8b b4 24 88 00 00 	mov    rsi,QWORD PTR [rsp+0x88]
  203c01:	00 
  203c02:	48 8b 3e             	mov    rdi,QWORD PTR [rsi]
  203c05:	48 0f af 8c 24 f0 00 	imul   rcx,QWORD PTR [rsp+0xf0]
  203c0c:	00 00 
  203c0e:	41 0f 90 c0          	seto   r8b
  203c12:	41 f6 c0 01          	test   r8b,0x1
  203c16:	48 89 7c 24 48       	mov    QWORD PTR [rsp+0x48],rdi
  203c1b:	48 89 4c 24 40       	mov    QWORD PTR [rsp+0x40],rcx
  203c20:	0f 85 c7 00 00 00    	jne    203ced <_ZN11rust_kernel3vga6buffer9VGABuffer10clear_line17h29f17e578ee4d3f0E+0x25d>
  203c26:	48 8b 44 24 40       	mov    rax,QWORD PTR [rsp+0x40]
  203c2b:	48 83 c0 00          	add    rax,0x0
  203c2f:	0f 90 c1             	seto   cl
  203c32:	f6 c1 01             	test   cl,0x1
  203c35:	48 89 44 24 38       	mov    QWORD PTR [rsp+0x38],rax
  203c3a:	0f 85 bb 00 00 00    	jne    203cfb <_ZN11rust_kernel3vga6buffer9VGABuffer10clear_line17h29f17e578ee4d3f0E+0x26b>
  203c40:	48 8b 7c 24 48       	mov    rdi,QWORD PTR [rsp+0x48]
  203c45:	48 8b 74 24 38       	mov    rsi,QWORD PTR [rsp+0x38]
  203c4a:	e8 01 c0 00 00       	call   20fc50 <_ZN4core3ptr31_$LT$impl$u20$$BP$mut$u20$T$GT$6offset17h529946b0efd4a962E>
  203c4f:	48 89 44 24 30       	mov    QWORD PTR [rsp+0x30],rax
  203c54:	b8 02 00 00 00       	mov    eax,0x2
  203c59:	89 c1                	mov    ecx,eax
  203c5b:	48 8b 54 24 30       	mov    rdx,QWORD PTR [rsp+0x30]
  203c60:	c6 02 20             	mov    BYTE PTR [rdx],0x20
  203c63:	40 8a b4 24 9f 00 00 	mov    sil,BYTE PTR [rsp+0x9f]
  203c6a:	00 
  203c6b:	48 8b bc 24 88 00 00 	mov    rdi,QWORD PTR [rsp+0x88]
  203c72:	00 
  203c73:	48 8b 3f             	mov    rdi,QWORD PTR [rdi]
  203c76:	48 0f af 8c 24 f0 00 	imul   rcx,QWORD PTR [rsp+0xf0]
  203c7d:	00 00 
  203c7f:	41 0f 90 c0          	seto   r8b
  203c83:	41 f6 c0 01          	test   r8b,0x1
  203c87:	48 89 7c 24 28       	mov    QWORD PTR [rsp+0x28],rdi
  203c8c:	40 88 74 24 27       	mov    BYTE PTR [rsp+0x27],sil
  203c91:	48 89 4c 24 18       	mov    QWORD PTR [rsp+0x18],rcx
  203c96:	75 71                	jne    203d09 <_ZN11rust_kernel3vga6buffer9VGABuffer10clear_line17h29f17e578ee4d3f0E+0x279>
  203c98:	48 8b 44 24 18       	mov    rax,QWORD PTR [rsp+0x18]
  203c9d:	48 ff c0             	inc    rax
  203ca0:	0f 90 c1             	seto   cl
  203ca3:	f6 c1 01             	test   cl,0x1
  203ca6:	48 89 44 24 10       	mov    QWORD PTR [rsp+0x10],rax
  203cab:	75 6a                	jne    203d17 <_ZN11rust_kernel3vga6buffer9VGABuffer10clear_line17h29f17e578ee4d3f0E+0x287>
  203cad:	48 8b 7c 24 28       	mov    rdi,QWORD PTR [rsp+0x28]
  203cb2:	48 8b 74 24 10       	mov    rsi,QWORD PTR [rsp+0x10]
  203cb7:	e8 94 bf 00 00       	call   20fc50 <_ZN4core3ptr31_$LT$impl$u20$$BP$mut$u20$T$GT$6offset17h529946b0efd4a962E>
  203cbc:	48 89 44 24 08       	mov    QWORD PTR [rsp+0x8],rax
  203cc1:	48 8b 44 24 08       	mov    rax,QWORD PTR [rsp+0x8]
  203cc6:	8a 4c 24 27          	mov    cl,BYTE PTR [rsp+0x27]
  203cca:	88 08                	mov    BYTE PTR [rax],cl
  203ccc:	e9 53 fe ff ff       	jmp    203b24 <_ZN11rust_kernel3vga6buffer9VGABuffer10clear_line17h29f17e578ee4d3f0E+0x94>
  203cd1:	48 8d 3d 98 34 01 00 	lea    rdi,[rip+0x13498]        # 217170 <_ZN11rust_kernel3vga6writer6WRITER17h25e0541f3f3878f2E+0x1140>
  203cd8:	e8 f3 03 01 00       	call   2140d0 <_ZN4core9panicking5panic17h8e7eea3eb5c7908eE>
  203cdd:	0f 0b                	ud2    
  203cdf:	48 8d 3d b2 34 01 00 	lea    rdi,[rip+0x134b2]        # 217198 <_ZN11rust_kernel3vga6writer6WRITER17h25e0541f3f3878f2E+0x1168>
  203ce6:	e8 e5 03 01 00       	call   2140d0 <_ZN4core9panicking5panic17h8e7eea3eb5c7908eE>
  203ceb:	0f 0b                	ud2    
  203ced:	48 8d 3d cc 34 01 00 	lea    rdi,[rip+0x134cc]        # 2171c0 <_ZN11rust_kernel3vga6writer6WRITER17h25e0541f3f3878f2E+0x1190>
  203cf4:	e8 d7 03 01 00       	call   2140d0 <_ZN4core9panicking5panic17h8e7eea3eb5c7908eE>
  203cf9:	0f 0b                	ud2    
  203cfb:	48 8d 3d e6 34 01 00 	lea    rdi,[rip+0x134e6]        # 2171e8 <_ZN11rust_kernel3vga6writer6WRITER17h25e0541f3f3878f2E+0x11b8>
  203d02:	e8 c9 03 01 00       	call   2140d0 <_ZN4core9panicking5panic17h8e7eea3eb5c7908eE>
  203d07:	0f 0b                	ud2    
  203d09:	48 8d 3d 00 35 01 00 	lea    rdi,[rip+0x13500]        # 217210 <_ZN11rust_kernel3vga6writer6WRITER17h25e0541f3f3878f2E+0x11e0>
  203d10:	e8 bb 03 01 00       	call   2140d0 <_ZN4core9panicking5panic17h8e7eea3eb5c7908eE>
  203d15:	0f 0b                	ud2    
  203d17:	48 8d 3d 1a 35 01 00 	lea    rdi,[rip+0x1351a]        # 217238 <_ZN11rust_kernel3vga6writer6WRITER17h25e0541f3f3878f2E+0x1208>
  203d1e:	e8 ad 03 01 00       	call   2140d0 <_ZN4core9panicking5panic17h8e7eea3eb5c7908eE>
  203d23:	0f 0b                	ud2    
  203d25:	cc                   	int3   
  203d26:	cc                   	int3   
  203d27:	cc                   	int3   
  203d28:	cc                   	int3   
  203d29:	cc                   	int3   
  203d2a:	cc                   	int3   
  203d2b:	cc                   	int3   
  203d2c:	cc                   	int3   
  203d2d:	cc                   	int3   
  203d2e:	cc                   	int3   
  203d2f:	cc                   	int3   

0000000000203d30 <_ZN11rust_kernel3vga6buffer9VGABuffer8shift_up17h93a031dc5285e2baE>:
  203d30:	48 81 ec d8 00 00 00 	sub    rsp,0xd8
  203d37:	b8 02 00 00 00       	mov    eax,0x2
  203d3c:	89 c1                	mov    ecx,eax
  203d3e:	48 89 7c 24 78       	mov    QWORD PTR [rsp+0x78],rdi
  203d43:	48 8b 7c 24 78       	mov    rdi,QWORD PTR [rsp+0x78]
  203d48:	48 8b 47 08          	mov    rax,QWORD PTR [rdi+0x8]
  203d4c:	48 f7 e1             	mul    rcx
  203d4f:	40 0f 90 c6          	seto   sil
  203d53:	40 f6 c6 01          	test   sil,0x1
  203d57:	48 89 44 24 70       	mov    QWORD PTR [rsp+0x70],rax
  203d5c:	0f 85 c8 01 00 00    	jne    203f2a <_ZN11rust_kernel3vga6buffer9VGABuffer8shift_up17h93a031dc5285e2baE+0x1fa>
  203d62:	48 8b 44 24 78       	mov    rax,QWORD PTR [rsp+0x78]
  203d67:	48 8b 40 10          	mov    rax,QWORD PTR [rax+0x10]
  203d6b:	48 8b 4c 24 78       	mov    rcx,QWORD PTR [rsp+0x78]
  203d70:	48 f7 61 08          	mul    QWORD PTR [rcx+0x8]
  203d74:	40 0f 90 c6          	seto   sil
  203d78:	40 f6 c6 01          	test   sil,0x1
  203d7c:	48 89 44 24 68       	mov    QWORD PTR [rsp+0x68],rax
  203d81:	0f 85 b1 01 00 00    	jne    203f38 <_ZN11rust_kernel3vga6buffer9VGABuffer8shift_up17h93a031dc5285e2baE+0x208>
  203d87:	b8 02 00 00 00       	mov    eax,0x2
  203d8c:	89 c1                	mov    ecx,eax
  203d8e:	48 8b 44 24 68       	mov    rax,QWORD PTR [rsp+0x68]
  203d93:	48 f7 e1             	mul    rcx
  203d96:	40 0f 90 c6          	seto   sil
  203d9a:	40 f6 c6 01          	test   sil,0x1
  203d9e:	48 89 44 24 60       	mov    QWORD PTR [rsp+0x60],rax
  203da3:	0f 85 9d 01 00 00    	jne    203f46 <_ZN11rust_kernel3vga6buffer9VGABuffer8shift_up17h93a031dc5285e2baE+0x216>
  203da9:	48 8b 44 24 70       	mov    rax,QWORD PTR [rsp+0x70]
  203dae:	48 89 84 24 88 00 00 	mov    QWORD PTR [rsp+0x88],rax
  203db5:	00 
  203db6:	48 8b 4c 24 60       	mov    rcx,QWORD PTR [rsp+0x60]
  203dbb:	48 89 8c 24 90 00 00 	mov    QWORD PTR [rsp+0x90],rcx
  203dc2:	00 
  203dc3:	48 8b bc 24 88 00 00 	mov    rdi,QWORD PTR [rsp+0x88]
  203dca:	00 
  203dcb:	48 8b b4 24 90 00 00 	mov    rsi,QWORD PTR [rsp+0x90]
  203dd2:	00 
  203dd3:	e8 78 c0 00 00       	call   20fe50 <_ZN54_$LT$I$u20$as$u20$core..iter..traits..IntoIterator$GT$9into_iter17h56ac6af66f4e3063E>
  203dd8:	48 89 44 24 58       	mov    QWORD PTR [rsp+0x58],rax
  203ddd:	48 89 54 24 50       	mov    QWORD PTR [rsp+0x50],rdx
  203de2:	48 8b 44 24 58       	mov    rax,QWORD PTR [rsp+0x58]
  203de7:	48 89 84 24 98 00 00 	mov    QWORD PTR [rsp+0x98],rax
  203dee:	00 
  203def:	48 8b 4c 24 50       	mov    rcx,QWORD PTR [rsp+0x50]
  203df4:	48 89 8c 24 a0 00 00 	mov    QWORD PTR [rsp+0xa0],rcx
  203dfb:	00 
  203dfc:	48 8d bc 24 98 00 00 	lea    rdi,[rsp+0x98]
  203e03:	00 
  203e04:	e8 67 bf 00 00       	call   20fd70 <_ZN4core4iter5range93_$LT$impl$u20$core..iter..iterator..Iterator$u20$for$u20$core..ops..range..Range$LT$A$GT$$GT$4next17hd144750dacd6125aE>
  203e09:	48 89 94 24 b8 00 00 	mov    QWORD PTR [rsp+0xb8],rdx
  203e10:	00 
  203e11:	48 89 84 24 b0 00 00 	mov    QWORD PTR [rsp+0xb0],rax
  203e18:	00 
  203e19:	48 8b 84 24 b0 00 00 	mov    rax,QWORD PTR [rsp+0xb0]
  203e20:	00 
  203e21:	48 85 c0             	test   rax,rax
  203e24:	48 89 44 24 48       	mov    QWORD PTR [rsp+0x48],rax
  203e29:	74 14                	je     203e3f <_ZN11rust_kernel3vga6buffer9VGABuffer8shift_up17h93a031dc5285e2baE+0x10f>
  203e2b:	eb 00                	jmp    203e2d <_ZN11rust_kernel3vga6buffer9VGABuffer8shift_up17h93a031dc5285e2baE+0xfd>
  203e2d:	48 8b 44 24 48       	mov    rax,QWORD PTR [rsp+0x48]
  203e32:	48 83 e8 01          	sub    rax,0x1
  203e36:	48 89 44 24 40       	mov    QWORD PTR [rsp+0x40],rax
  203e3b:	74 0c                	je     203e49 <_ZN11rust_kernel3vga6buffer9VGABuffer8shift_up17h93a031dc5285e2baE+0x119>
  203e3d:	eb 08                	jmp    203e47 <_ZN11rust_kernel3vga6buffer9VGABuffer8shift_up17h93a031dc5285e2baE+0x117>
  203e3f:	48 81 c4 d8 00 00 00 	add    rsp,0xd8
  203e46:	c3                   	ret    
  203e47:	0f 0b                	ud2    
  203e49:	48 8b 84 24 b8 00 00 	mov    rax,QWORD PTR [rsp+0xb8]
  203e50:	00 
  203e51:	48 89 84 24 c0 00 00 	mov    QWORD PTR [rsp+0xc0],rax
  203e58:	00 
  203e59:	48 8b 84 24 c0 00 00 	mov    rax,QWORD PTR [rsp+0xc0]
  203e60:	00 
  203e61:	48 89 84 24 a8 00 00 	mov    QWORD PTR [rsp+0xa8],rax
  203e68:	00 
  203e69:	48 8b 84 24 a8 00 00 	mov    rax,QWORD PTR [rsp+0xa8]
  203e70:	00 
  203e71:	48 89 84 24 c8 00 00 	mov    QWORD PTR [rsp+0xc8],rax
  203e78:	00 
  203e79:	48 8b 84 24 c8 00 00 	mov    rax,QWORD PTR [rsp+0xc8]
  203e80:	00 
  203e81:	48 89 84 24 d0 00 00 	mov    QWORD PTR [rsp+0xd0],rax
  203e88:	00 
  203e89:	48 8b 44 24 78       	mov    rax,QWORD PTR [rsp+0x78]
  203e8e:	48 8b 38             	mov    rdi,QWORD PTR [rax]
  203e91:	48 8b b4 24 d0 00 00 	mov    rsi,QWORD PTR [rsp+0xd0]
  203e98:	00 
  203e99:	e8 b2 bd 00 00       	call   20fc50 <_ZN4core3ptr31_$LT$impl$u20$$BP$mut$u20$T$GT$6offset17h529946b0efd4a962E>
  203e9e:	48 89 44 24 38       	mov    QWORD PTR [rsp+0x38],rax
  203ea3:	b8 02 00 00 00       	mov    eax,0x2
  203ea8:	89 c1                	mov    ecx,eax
  203eaa:	48 8b 54 24 38       	mov    rdx,QWORD PTR [rsp+0x38]
  203eaf:	40 8a 32             	mov    sil,BYTE PTR [rdx]
  203eb2:	48 8b 7c 24 78       	mov    rdi,QWORD PTR [rsp+0x78]
  203eb7:	48 8b 3f             	mov    rdi,QWORD PTR [rdi]
  203eba:	4c 8b 84 24 d0 00 00 	mov    r8,QWORD PTR [rsp+0xd0]
  203ec1:	00 
  203ec2:	4c 8b 4c 24 78       	mov    r9,QWORD PTR [rsp+0x78]
  203ec7:	49 8b 41 08          	mov    rax,QWORD PTR [r9+0x8]
  203ecb:	48 f7 e1             	mul    rcx
  203ece:	41 0f 90 c2          	seto   r10b
  203ed2:	41 f6 c2 01          	test   r10b,0x1
  203ed6:	4c 89 44 24 30       	mov    QWORD PTR [rsp+0x30],r8
  203edb:	48 89 7c 24 28       	mov    QWORD PTR [rsp+0x28],rdi
  203ee0:	40 88 74 24 27       	mov    BYTE PTR [rsp+0x27],sil
  203ee5:	48 89 44 24 18       	mov    QWORD PTR [rsp+0x18],rax
  203eea:	75 68                	jne    203f54 <_ZN11rust_kernel3vga6buffer9VGABuffer8shift_up17h93a031dc5285e2baE+0x224>
  203eec:	48 8b 44 24 30       	mov    rax,QWORD PTR [rsp+0x30]
  203ef1:	48 8b 4c 24 18       	mov    rcx,QWORD PTR [rsp+0x18]
  203ef6:	48 29 c8             	sub    rax,rcx
  203ef9:	0f 90 c2             	seto   dl
  203efc:	f6 c2 01             	test   dl,0x1
  203eff:	48 89 44 24 10       	mov    QWORD PTR [rsp+0x10],rax
  203f04:	75 5c                	jne    203f62 <_ZN11rust_kernel3vga6buffer9VGABuffer8shift_up17h93a031dc5285e2baE+0x232>
  203f06:	48 8b 7c 24 28       	mov    rdi,QWORD PTR [rsp+0x28]
  203f0b:	48 8b 74 24 10       	mov    rsi,QWORD PTR [rsp+0x10]
  203f10:	e8 3b bd 00 00       	call   20fc50 <_ZN4core3ptr31_$LT$impl$u20$$BP$mut$u20$T$GT$6offset17h529946b0efd4a962E>
  203f15:	48 89 44 24 08       	mov    QWORD PTR [rsp+0x8],rax
  203f1a:	48 8b 44 24 08       	mov    rax,QWORD PTR [rsp+0x8]
  203f1f:	8a 4c 24 27          	mov    cl,BYTE PTR [rsp+0x27]
  203f23:	88 08                	mov    BYTE PTR [rax],cl
  203f25:	e9 d2 fe ff ff       	jmp    203dfc <_ZN11rust_kernel3vga6buffer9VGABuffer8shift_up17h93a031dc5285e2baE+0xcc>
  203f2a:	48 8d 3d 2f 33 01 00 	lea    rdi,[rip+0x1332f]        # 217260 <_ZN11rust_kernel3vga6writer6WRITER17h25e0541f3f3878f2E+0x1230>
  203f31:	e8 9a 01 01 00       	call   2140d0 <_ZN4core9panicking5panic17h8e7eea3eb5c7908eE>
  203f36:	0f 0b                	ud2    
  203f38:	48 8d 3d 49 33 01 00 	lea    rdi,[rip+0x13349]        # 217288 <_ZN11rust_kernel3vga6writer6WRITER17h25e0541f3f3878f2E+0x1258>
  203f3f:	e8 8c 01 01 00       	call   2140d0 <_ZN4core9panicking5panic17h8e7eea3eb5c7908eE>
  203f44:	0f 0b                	ud2    
  203f46:	48 8d 3d 3b 33 01 00 	lea    rdi,[rip+0x1333b]        # 217288 <_ZN11rust_kernel3vga6writer6WRITER17h25e0541f3f3878f2E+0x1258>
  203f4d:	e8 7e 01 01 00       	call   2140d0 <_ZN4core9panicking5panic17h8e7eea3eb5c7908eE>
  203f52:	0f 0b                	ud2    
  203f54:	48 8d 3d 55 33 01 00 	lea    rdi,[rip+0x13355]        # 2172b0 <_ZN11rust_kernel3vga6writer6WRITER17h25e0541f3f3878f2E+0x1280>
  203f5b:	e8 70 01 01 00       	call   2140d0 <_ZN4core9panicking5panic17h8e7eea3eb5c7908eE>
  203f60:	0f 0b                	ud2    
  203f62:	48 8d 3d 6f 33 01 00 	lea    rdi,[rip+0x1336f]        # 2172d8 <_ZN11rust_kernel3vga6writer6WRITER17h25e0541f3f3878f2E+0x12a8>
  203f69:	e8 62 01 01 00       	call   2140d0 <_ZN4core9panicking5panic17h8e7eea3eb5c7908eE>
  203f6e:	0f 0b                	ud2    

0000000000203f70 <_ZN11rust_kernel6memory15frame_allocator19FrameStackAllocator17first_free_region28_$u7b$$u7b$closure$u7d$$u7d$17h57699870883dcb7dE>:
  203f70:	48 83 ec 10          	sub    rsp,0x10
  203f74:	48 89 7c 24 08       	mov    QWORD PTR [rsp+0x8],rdi
  203f79:	48 8b 44 24 08       	mov    rax,QWORD PTR [rsp+0x8]
  203f7e:	48 83 c4 10          	add    rsp,0x10
  203f82:	c3                   	ret    
  203f83:	cc                   	int3   
  203f84:	cc                   	int3   
  203f85:	cc                   	int3   
  203f86:	cc                   	int3   
  203f87:	cc                   	int3   
  203f88:	cc                   	int3   
  203f89:	cc                   	int3   
  203f8a:	cc                   	int3   
  203f8b:	cc                   	int3   
  203f8c:	cc                   	int3   
  203f8d:	cc                   	int3   
  203f8e:	cc                   	int3   
  203f8f:	cc                   	int3   

0000000000203f90 <_ZN64_$LT$u8$u20$as$u20$x86_64..instructions..port..PortReadWrite$GT$13write_to_port17he8fdc92ecb99173cE>:
  203f90:	48 83 ec 04          	sub    rsp,0x4
  203f94:	40 88 f0             	mov    al,sil
  203f97:	66 89 f9             	mov    cx,di
  203f9a:	66 89 0c 24          	mov    WORD PTR [rsp],cx
  203f9e:	88 44 24 03          	mov    BYTE PTR [rsp+0x3],al
  203fa2:	66 8b 14 24          	mov    dx,WORD PTR [rsp]
  203fa6:	8a 44 24 03          	mov    al,BYTE PTR [rsp+0x3]
  203faa:	ee                   	out    dx,al
  203fab:	48 83 c4 04          	add    rsp,0x4
  203faf:	c3                   	ret    

0000000000203fb0 <_ZN64_$LT$u8$u20$as$u20$x86_64..instructions..port..PortReadWrite$GT$14read_from_port17hc5c157e008fc7fddE>:
  203fb0:	48 83 ec 04          	sub    rsp,0x4
  203fb4:	66 89 f8             	mov    ax,di
  203fb7:	66 89 04 24          	mov    WORD PTR [rsp],ax
  203fbb:	66 8b 14 24          	mov    dx,WORD PTR [rsp]
  203fbf:	ec                   	in     al,dx
  203fc0:	88 44 24 03          	mov    BYTE PTR [rsp+0x3],al
  203fc4:	8a 44 24 03          	mov    al,BYTE PTR [rsp+0x3]
  203fc8:	48 83 c4 04          	add    rsp,0x4
  203fcc:	c3                   	ret    
  203fcd:	cc                   	int3   
  203fce:	cc                   	int3   
  203fcf:	cc                   	int3   

0000000000203fd0 <_ZN4core3fmt5Write10write_char17hf4f22972b1a1ef5dE>:
  203fd0:	48 83 ec 48          	sub    rsp,0x48
  203fd4:	b8 04 00 00 00       	mov    eax,0x4
  203fd9:	89 c1                	mov    ecx,eax
  203fdb:	48 8d 54 24 44       	lea    rdx,[rsp+0x44]
  203fe0:	31 c0                	xor    eax,eax
  203fe2:	48 89 7c 24 38       	mov    QWORD PTR [rsp+0x38],rdi
  203fe7:	89 74 24 40          	mov    DWORD PTR [rsp+0x40],esi
  203feb:	48 8b 7c 24 38       	mov    rdi,QWORD PTR [rsp+0x38]
  203ff0:	8b 74 24 40          	mov    esi,DWORD PTR [rsp+0x40]
  203ff4:	48 89 7c 24 30       	mov    QWORD PTR [rsp+0x30],rdi
  203ff9:	48 89 d7             	mov    rdi,rdx
  203ffc:	89 74 24 2c          	mov    DWORD PTR [rsp+0x2c],esi
  204000:	89 c6                	mov    esi,eax
  204002:	48 89 54 24 20       	mov    QWORD PTR [rsp+0x20],rdx
  204007:	48 89 ca             	mov    rdx,rcx
  20400a:	48 89 4c 24 18       	mov    QWORD PTR [rsp+0x18],rcx
  20400f:	e8 bc 02 01 00       	call   2142d0 <memset>
  204014:	48 8b 4c 24 20       	mov    rcx,QWORD PTR [rsp+0x20]
  204019:	8b 7c 24 2c          	mov    edi,DWORD PTR [rsp+0x2c]
  20401d:	48 89 ce             	mov    rsi,rcx
  204020:	48 8b 54 24 18       	mov    rdx,QWORD PTR [rsp+0x18]
  204025:	e8 d6 09 00 00       	call   204a00 <_ZN4core4char7methods22_$LT$impl$u20$char$GT$11encode_utf817hefd80bfc47950262E>
  20402a:	48 89 44 24 10       	mov    QWORD PTR [rsp+0x10],rax
  20402f:	48 89 54 24 08       	mov    QWORD PTR [rsp+0x8],rdx
  204034:	48 8b 7c 24 30       	mov    rdi,QWORD PTR [rsp+0x30]
  204039:	48 8b 74 24 10       	mov    rsi,QWORD PTR [rsp+0x10]
  20403e:	48 8b 54 24 08       	mov    rdx,QWORD PTR [rsp+0x8]
  204043:	e8 98 61 00 00       	call   20a1e0 <_ZN69_$LT$rust_kernel..vga..writer..Writer$u20$as$u20$core..fmt..Write$GT$9write_str17hbf1b16854cb81fdcE>
  204048:	88 44 24 07          	mov    BYTE PTR [rsp+0x7],al
  20404c:	8a 44 24 07          	mov    al,BYTE PTR [rsp+0x7]
  204050:	24 01                	and    al,0x1
  204052:	0f b6 c0             	movzx  eax,al
  204055:	48 83 c4 48          	add    rsp,0x48
  204059:	c3                   	ret    
  20405a:	cc                   	int3   
  20405b:	cc                   	int3   
  20405c:	cc                   	int3   
  20405d:	cc                   	int3   
  20405e:	cc                   	int3   
  20405f:	cc                   	int3   

0000000000204060 <_ZN4core3fmt5Write9write_fmt17h18f4d0ce8f858021E>:
  204060:	48 83 ec 68          	sub    rsp,0x68
  204064:	48 8d 05 95 32 01 00 	lea    rax,[rip+0x13295]        # 217300 <_ZN11rust_kernel3vga6writer6WRITER17h25e0541f3f3878f2E+0x12d0>
  20406b:	b9 30 00 00 00       	mov    ecx,0x30
  204070:	89 ca                	mov    edx,ecx
  204072:	48 89 7c 24 28       	mov    QWORD PTR [rsp+0x28],rdi
  204077:	48 8b 7c 24 28       	mov    rdi,QWORD PTR [rsp+0x28]
  20407c:	48 89 7c 24 30       	mov    QWORD PTR [rsp+0x30],rdi
  204081:	48 8d 7c 24 30       	lea    rdi,[rsp+0x30]
  204086:	4c 8d 44 24 38       	lea    r8,[rsp+0x38]
  20408b:	4d 89 c1             	mov    r9,r8
  20408e:	48 89 7c 24 20       	mov    QWORD PTR [rsp+0x20],rdi
  204093:	4c 89 cf             	mov    rdi,r9
  204096:	4c 89 44 24 18       	mov    QWORD PTR [rsp+0x18],r8
  20409b:	48 89 44 24 10       	mov    QWORD PTR [rsp+0x10],rax
  2040a0:	e8 fb 01 01 00       	call   2142a0 <memcpy>
  2040a5:	48 8b 7c 24 20       	mov    rdi,QWORD PTR [rsp+0x20]
  2040aa:	48 8b 74 24 10       	mov    rsi,QWORD PTR [rsp+0x10]
  2040af:	48 8b 54 24 18       	mov    rdx,QWORD PTR [rsp+0x18]
  2040b4:	e8 d7 d6 00 00       	call   211790 <_ZN4core3fmt5write17h6e1167e307d68b66E>
  2040b9:	88 44 24 0f          	mov    BYTE PTR [rsp+0xf],al
  2040bd:	8a 44 24 0f          	mov    al,BYTE PTR [rsp+0xf]
  2040c1:	24 01                	and    al,0x1
  2040c3:	0f b6 c0             	movzx  eax,al
  2040c6:	48 83 c4 68          	add    rsp,0x68
  2040ca:	c3                   	ret    
  2040cb:	cc                   	int3   
  2040cc:	cc                   	int3   
  2040cd:	cc                   	int3   
  2040ce:	cc                   	int3   
  2040cf:	cc                   	int3   

00000000002040d0 <_ZN4core3num20_$LT$impl$u20$u8$GT$11checked_add17h7f2b1108485aa866E>:
  2040d0:	48 83 ec 18          	sub    rsp,0x18
  2040d4:	40 88 f0             	mov    al,sil
  2040d7:	40 88 f9             	mov    cl,dil
  2040da:	88 4c 24 0e          	mov    BYTE PTR [rsp+0xe],cl
  2040de:	88 44 24 0f          	mov    BYTE PTR [rsp+0xf],al
  2040e2:	8a 44 24 0e          	mov    al,BYTE PTR [rsp+0xe]
  2040e6:	0f b6 f8             	movzx  edi,al
  2040e9:	0f b6 74 24 0f       	movzx  esi,BYTE PTR [rsp+0xf]
  2040ee:	e8 4d 00 00 00       	call   204140 <_ZN4core3num20_$LT$impl$u20$u8$GT$15overflowing_add17hc94418bc0745aadcE>
  2040f3:	88 44 24 0d          	mov    BYTE PTR [rsp+0xd],al
  2040f7:	88 54 24 0c          	mov    BYTE PTR [rsp+0xc],dl
  2040fb:	8a 44 24 0d          	mov    al,BYTE PTR [rsp+0xd]
  2040ff:	88 44 24 16          	mov    BYTE PTR [rsp+0x16],al
  204103:	8a 4c 24 0c          	mov    cl,BYTE PTR [rsp+0xc]
  204107:	80 e1 01             	and    cl,0x1
  20410a:	88 4c 24 17          	mov    BYTE PTR [rsp+0x17],cl
  20410e:	f6 44 24 17 01       	test   BYTE PTR [rsp+0x17],0x1
  204113:	74 07                	je     20411c <_ZN4core3num20_$LT$impl$u20$u8$GT$11checked_add17h7f2b1108485aa866E+0x4c>
  204115:	c6 44 24 10 00       	mov    BYTE PTR [rsp+0x10],0x0
  20411a:	eb 0d                	jmp    204129 <_ZN4core3num20_$LT$impl$u20$u8$GT$11checked_add17h7f2b1108485aa866E+0x59>
  20411c:	8a 44 24 16          	mov    al,BYTE PTR [rsp+0x16]
  204120:	88 44 24 11          	mov    BYTE PTR [rsp+0x11],al
  204124:	c6 44 24 10 01       	mov    BYTE PTR [rsp+0x10],0x1
  204129:	8a 44 24 10          	mov    al,BYTE PTR [rsp+0x10]
  20412d:	8a 54 24 11          	mov    dl,BYTE PTR [rsp+0x11]
  204131:	48 83 c4 18          	add    rsp,0x18
  204135:	c3                   	ret    
  204136:	cc                   	int3   
  204137:	cc                   	int3   
  204138:	cc                   	int3   
  204139:	cc                   	int3   
  20413a:	cc                   	int3   
  20413b:	cc                   	int3   
  20413c:	cc                   	int3   
  20413d:	cc                   	int3   
  20413e:	cc                   	int3   
  20413f:	cc                   	int3   

0000000000204140 <_ZN4core3num20_$LT$impl$u20$u8$GT$15overflowing_add17hc94418bc0745aadcE>:
  204140:	48 83 ec 18          	sub    rsp,0x18
  204144:	40 88 f0             	mov    al,sil
  204147:	40 88 f9             	mov    cl,dil
  20414a:	88 4c 24 06          	mov    BYTE PTR [rsp+0x6],cl
  20414e:	88 44 24 07          	mov    BYTE PTR [rsp+0x7],al
  204152:	8a 44 24 06          	mov    al,BYTE PTR [rsp+0x6]
  204156:	02 44 24 07          	add    al,BYTE PTR [rsp+0x7]
  20415a:	0f 92 c1             	setb   cl
  20415d:	80 e1 01             	and    cl,0x1
  204160:	88 44 24 10          	mov    BYTE PTR [rsp+0x10],al
  204164:	88 4c 24 11          	mov    BYTE PTR [rsp+0x11],cl
  204168:	8a 44 24 10          	mov    al,BYTE PTR [rsp+0x10]
  20416c:	8a 4c 24 11          	mov    cl,BYTE PTR [rsp+0x11]
  204170:	88 44 24 05          	mov    BYTE PTR [rsp+0x5],al
  204174:	88 4c 24 04          	mov    BYTE PTR [rsp+0x4],cl
  204178:	8a 44 24 05          	mov    al,BYTE PTR [rsp+0x5]
  20417c:	88 44 24 0e          	mov    BYTE PTR [rsp+0xe],al
  204180:	8a 4c 24 04          	mov    cl,BYTE PTR [rsp+0x4]
  204184:	80 e1 01             	and    cl,0x1
  204187:	88 4c 24 0f          	mov    BYTE PTR [rsp+0xf],cl
  20418b:	8a 4c 24 0e          	mov    cl,BYTE PTR [rsp+0xe]
  20418f:	8a 54 24 0f          	mov    dl,BYTE PTR [rsp+0xf]
  204193:	88 4c 24 08          	mov    BYTE PTR [rsp+0x8],cl
  204197:	88 54 24 09          	mov    BYTE PTR [rsp+0x9],dl
  20419b:	8a 44 24 08          	mov    al,BYTE PTR [rsp+0x8]
  20419f:	8a 54 24 09          	mov    dl,BYTE PTR [rsp+0x9]
  2041a3:	48 83 c4 18          	add    rsp,0x18
  2041a7:	c3                   	ret    
  2041a8:	cc                   	int3   
  2041a9:	cc                   	int3   
  2041aa:	cc                   	int3   
  2041ab:	cc                   	int3   
  2041ac:	cc                   	int3   
  2041ad:	cc                   	int3   
  2041ae:	cc                   	int3   
  2041af:	cc                   	int3   

00000000002041b0 <_ZN4core3num20_$LT$impl$u20$u8$GT$9max_value17h576dfb1efbcfed5bE>:
  2041b0:	b0 ff                	mov    al,0xff
  2041b2:	c3                   	ret    
  2041b3:	cc                   	int3   
  2041b4:	cc                   	int3   
  2041b5:	cc                   	int3   
  2041b6:	cc                   	int3   
  2041b7:	cc                   	int3   
  2041b8:	cc                   	int3   
  2041b9:	cc                   	int3   
  2041ba:	cc                   	int3   
  2041bb:	cc                   	int3   
  2041bc:	cc                   	int3   
  2041bd:	cc                   	int3   
  2041be:	cc                   	int3   
  2041bf:	cc                   	int3   

00000000002041c0 <_ZN4core3num23_$LT$impl$u20$usize$GT$12wrapping_sub17h1a7ceec981b445e5E>:
  2041c0:	48 83 ec 20          	sub    rsp,0x20
  2041c4:	48 89 7c 24 08       	mov    QWORD PTR [rsp+0x8],rdi
  2041c9:	48 89 74 24 10       	mov    QWORD PTR [rsp+0x10],rsi
  2041ce:	48 8b 74 24 08       	mov    rsi,QWORD PTR [rsp+0x8]
  2041d3:	48 2b 74 24 10       	sub    rsi,QWORD PTR [rsp+0x10]
  2041d8:	48 89 74 24 18       	mov    QWORD PTR [rsp+0x18],rsi
  2041dd:	48 8b 44 24 18       	mov    rax,QWORD PTR [rsp+0x18]
  2041e2:	48 89 04 24          	mov    QWORD PTR [rsp],rax
  2041e6:	48 8b 04 24          	mov    rax,QWORD PTR [rsp]
  2041ea:	48 83 c4 20          	add    rsp,0x20
  2041ee:	c3                   	ret    
  2041ef:	cc                   	int3   

00000000002041f0 <_ZN181_$LT$x86_64..structures..paging..recursive..RecursivePageTable$LT$$u27$a$GT$$u20$as$u20$x86_64..structures..paging..recursive..Mapper$LT$x86_64..structures..paging..Size4KiB$GT$$GT$6map_to17h56079748e3b8f5b4E>:
  2041f0:	48 81 ec 48 02 00 00 	sub    rsp,0x248
  2041f7:	48 89 f8             	mov    rax,rdi
  2041fa:	48 89 b4 24 d8 00 00 	mov    QWORD PTR [rsp+0xd8],rsi
  204201:	00 
  204202:	48 89 94 24 e8 00 00 	mov    QWORD PTR [rsp+0xe8],rdx
  204209:	00 
  20420a:	48 8b 94 24 e8 00 00 	mov    rdx,QWORD PTR [rsp+0xe8]
  204211:	00 
  204212:	48 89 94 24 e0 00 00 	mov    QWORD PTR [rsp+0xe0],rdx
  204219:	00 
  20421a:	48 89 8c 24 f8 00 00 	mov    QWORD PTR [rsp+0xf8],rcx
  204221:	00 
  204222:	48 8b 8c 24 f8 00 00 	mov    rcx,QWORD PTR [rsp+0xf8]
  204229:	00 
  20422a:	48 89 8c 24 f0 00 00 	mov    QWORD PTR [rsp+0xf0],rcx
  204231:	00 
  204232:	4c 89 84 24 00 01 00 	mov    QWORD PTR [rsp+0x100],r8
  204239:	00 
  20423a:	4c 89 8c 24 08 01 00 	mov    QWORD PTR [rsp+0x108],r9
  204241:	00 
  204242:	48 8b 8c 24 d8 00 00 	mov    rcx,QWORD PTR [rsp+0xd8]
  204249:	00 
  20424a:	48 89 8c 24 10 01 00 	mov    QWORD PTR [rsp+0x110],rcx
  204251:	00 
  204252:	48 8b 8c 24 e0 00 00 	mov    rcx,QWORD PTR [rsp+0xe0]
  204259:	00 
  20425a:	48 89 8c 24 20 01 00 	mov    QWORD PTR [rsp+0x120],rcx
  204261:	00 
  204262:	48 8b 8c 24 d8 00 00 	mov    rcx,QWORD PTR [rsp+0xd8]
  204269:	00 
  20426a:	66 44 8b 51 08       	mov    r10w,WORD PTR [rcx+0x8]
  20426f:	48 8b 8c 24 20 01 00 	mov    rcx,QWORD PTR [rsp+0x120]
  204276:	00 
  204277:	48 89 bc 24 d0 00 00 	mov    QWORD PTR [rsp+0xd0],rdi
  20427e:	00 
  20427f:	48 89 cf             	mov    rdi,rcx
  204282:	41 0f b7 f2          	movzx  esi,r10w
  204286:	48 89 84 24 c8 00 00 	mov    QWORD PTR [rsp+0xc8],rax
  20428d:	00 
  20428e:	e8 2d 84 00 00       	call   20c6c0 <_ZN6x86_6410structures6paging9recursive7p3_page17hbc9d90fbbb40a5c4E>
  204293:	48 89 84 24 28 02 00 	mov    QWORD PTR [rsp+0x228],rax
  20429a:	00 
  20429b:	48 8b 84 24 28 02 00 	mov    rax,QWORD PTR [rsp+0x228]
  2042a2:	00 
  2042a3:	48 89 84 24 18 01 00 	mov    QWORD PTR [rsp+0x118],rax
  2042aa:	00 
  2042ab:	48 8b 84 24 10 01 00 	mov    rax,QWORD PTR [rsp+0x110]
  2042b2:	00 
  2042b3:	48 8b 38             	mov    rdi,QWORD PTR [rax]
  2042b6:	48 8d 84 24 e0 00 00 	lea    rax,[rsp+0xe0]
  2042bd:	00 
  2042be:	48 89 bc 24 c0 00 00 	mov    QWORD PTR [rsp+0xc0],rdi
  2042c5:	00 
  2042c6:	48 89 c7             	mov    rdi,rax
  2042c9:	e8 f2 ad 00 00       	call   20f0c0 <_ZN50_$LT$x86_64..structures..paging..Page$LT$S$GT$$GT$8p4_index17hc50b83e10fe200d5E>
  2042ce:	66 89 84 24 be 00 00 	mov    WORD PTR [rsp+0xbe],ax
  2042d5:	00 
  2042d6:	48 8b bc 24 c0 00 00 	mov    rdi,QWORD PTR [rsp+0xc0]
  2042dd:	00 
  2042de:	66 8b 84 24 be 00 00 	mov    ax,WORD PTR [rsp+0xbe]
  2042e5:	00 
  2042e6:	0f b7 f0             	movzx  esi,ax
  2042e9:	e8 a2 6c 00 00       	call   20af90 <_ZN110_$LT$x86_64..structures..paging..page_table..PageTable$u20$as$u20$core..ops..index..IndexMut$LT$ux..u9$GT$$GT$9index_mut17hc859036545f8b0baE>
  2042ee:	48 89 84 24 b0 00 00 	mov    QWORD PTR [rsp+0xb0],rax
  2042f5:	00 
  2042f6:	48 8b 84 24 18 01 00 	mov    rax,QWORD PTR [rsp+0x118]
  2042fd:	00 
  2042fe:	48 89 84 24 50 01 00 	mov    QWORD PTR [rsp+0x150],rax
  204305:	00 
  204306:	48 8b 8c 24 08 01 00 	mov    rcx,QWORD PTR [rsp+0x108]
  20430d:	00 
  20430e:	48 8b 94 24 50 01 00 	mov    rdx,QWORD PTR [rsp+0x150]
  204315:	00 
  204316:	48 8d bc 24 40 01 00 	lea    rdi,[rsp+0x140]
  20431d:	00 
  20431e:	48 8b b4 24 b0 00 00 	mov    rsi,QWORD PTR [rsp+0xb0]
  204325:	00 
  204326:	e8 e5 04 00 00       	call   204810 <_ZN6x86_6410structures6paging9recursive18RecursivePageTable17create_next_table17h9da10ebfc33e8bbcE>
  20432b:	48 8d bc 24 30 01 00 	lea    rdi,[rsp+0x130]
  204332:	00 
  204333:	48 8d b4 24 40 01 00 	lea    rsi,[rsp+0x140]
  20433a:	00 
  20433b:	e8 60 44 00 00       	call   2087a0 <_ZN78_$LT$core..result..Result$LT$T$C$$u20$E$GT$$u20$as$u20$core..ops..try..Try$GT$11into_result17hdfda15f11a5a072fE>
  204340:	0f b6 84 24 30 01 00 	movzx  eax,BYTE PTR [rsp+0x130]
  204347:	00 
  204348:	89 c1                	mov    ecx,eax
  20434a:	88 ca                	mov    dl,cl
  20434c:	f6 c2 01             	test   dl,0x1
  20434f:	48 89 8c 24 a8 00 00 	mov    QWORD PTR [rsp+0xa8],rcx
  204356:	00 
  204357:	74 1c                	je     204375 <_ZN181_$LT$x86_64..structures..paging..recursive..RecursivePageTable$LT$$u27$a$GT$$u20$as$u20$x86_64..structures..paging..recursive..Mapper$LT$x86_64..structures..paging..Size4KiB$GT$$GT$6map_to17h56079748e3b8f5b4E+0x185>
  204359:	eb 00                	jmp    20435b <_ZN181_$LT$x86_64..structures..paging..recursive..RecursivePageTable$LT$$u27$a$GT$$u20$as$u20$x86_64..structures..paging..recursive..Mapper$LT$x86_64..structures..paging..Size4KiB$GT$$GT$6map_to17h56079748e3b8f5b4E+0x16b>
  20435b:	48 8b 84 24 a8 00 00 	mov    rax,QWORD PTR [rsp+0xa8]
  204362:	00 
  204363:	48 83 e8 01          	sub    rax,0x1
  204367:	48 89 84 24 a0 00 00 	mov    QWORD PTR [rsp+0xa0],rax
  20436e:	00 
  20436f:	74 6a                	je     2043db <_ZN181_$LT$x86_64..structures..paging..recursive..RecursivePageTable$LT$$u27$a$GT$$u20$as$u20$x86_64..structures..paging..recursive..Mapper$LT$x86_64..structures..paging..Size4KiB$GT$$GT$6map_to17h56079748e3b8f5b4E+0x1eb>
  204371:	eb 00                	jmp    204373 <_ZN181_$LT$x86_64..structures..paging..recursive..RecursivePageTable$LT$$u27$a$GT$$u20$as$u20$x86_64..structures..paging..recursive..Mapper$LT$x86_64..structures..paging..Size4KiB$GT$$GT$6map_to17h56079748e3b8f5b4E+0x183>
  204373:	0f 0b                	ud2    
  204375:	48 8b 84 24 38 01 00 	mov    rax,QWORD PTR [rsp+0x138]
  20437c:	00 
  20437d:	48 89 84 24 60 01 00 	mov    QWORD PTR [rsp+0x160],rax
  204384:	00 
  204385:	48 8b 84 24 60 01 00 	mov    rax,QWORD PTR [rsp+0x160]
  20438c:	00 
  20438d:	48 89 84 24 28 01 00 	mov    QWORD PTR [rsp+0x128],rax
  204394:	00 
  204395:	48 8b 84 24 e0 00 00 	mov    rax,QWORD PTR [rsp+0xe0]
  20439c:	00 
  20439d:	48 89 84 24 70 01 00 	mov    QWORD PTR [rsp+0x170],rax
  2043a4:	00 
  2043a5:	48 8b 84 24 d8 00 00 	mov    rax,QWORD PTR [rsp+0xd8]
  2043ac:	00 
  2043ad:	66 8b 48 08          	mov    cx,WORD PTR [rax+0x8]
  2043b1:	48 8b bc 24 70 01 00 	mov    rdi,QWORD PTR [rsp+0x170]
  2043b8:	00 
  2043b9:	0f b7 f1             	movzx  esi,cx
  2043bc:	e8 8f 83 00 00       	call   20c750 <_ZN6x86_6410structures6paging9recursive7p2_page17hc0c7cac038205e49E>
  2043c1:	48 89 84 24 30 02 00 	mov    QWORD PTR [rsp+0x230],rax
  2043c8:	00 
  2043c9:	48 8b 84 24 30 02 00 	mov    rax,QWORD PTR [rsp+0x230]
  2043d0:	00 
  2043d1:	48 89 84 24 68 01 00 	mov    QWORD PTR [rsp+0x168],rax
  2043d8:	00 
  2043d9:	eb 4d                	jmp    204428 <_ZN181_$LT$x86_64..structures..paging..recursive..RecursivePageTable$LT$$u27$a$GT$$u20$as$u20$x86_64..structures..paging..recursive..Mapper$LT$x86_64..structures..paging..Size4KiB$GT$$GT$6map_to17h56079748e3b8f5b4E+0x238>
  2043db:	8a 84 24 31 01 00 00 	mov    al,BYTE PTR [rsp+0x131]
  2043e2:	88 84 24 5f 01 00 00 	mov    BYTE PTR [rsp+0x15f],al
  2043e9:	0f b6 bc 24 5f 01 00 	movzx  edi,BYTE PTR [rsp+0x15f]
  2043f0:	00 
  2043f1:	e8 ca 03 00 00       	call   2047c0 <_ZN50_$LT$T$u20$as$u20$core..convert..From$LT$T$GT$$GT$4from17h59eba1534d3571b7E>
  2043f6:	88 84 24 9f 00 00 00 	mov    BYTE PTR [rsp+0x9f],al
  2043fd:	48 8b bc 24 d0 00 00 	mov    rdi,QWORD PTR [rsp+0xd0]
  204404:	00 
  204405:	8a 84 24 9f 00 00 00 	mov    al,BYTE PTR [rsp+0x9f]
  20440c:	0f b6 f0             	movzx  esi,al
  20440f:	e8 6c 43 00 00       	call   208780 <_ZN78_$LT$core..result..Result$LT$T$C$$u20$E$GT$$u20$as$u20$core..ops..try..Try$GT$10from_error17h1d936e6a9fb0d486E>
  204414:	eb 10                	jmp    204426 <_ZN181_$LT$x86_64..structures..paging..recursive..RecursivePageTable$LT$$u27$a$GT$$u20$as$u20$x86_64..structures..paging..recursive..Mapper$LT$x86_64..structures..paging..Size4KiB$GT$$GT$6map_to17h56079748e3b8f5b4E+0x236>
  204416:	48 8b 84 24 c8 00 00 	mov    rax,QWORD PTR [rsp+0xc8]
  20441d:	00 
  20441e:	48 81 c4 48 02 00 00 	add    rsp,0x248
  204425:	c3                   	ret    
  204426:	eb ee                	jmp    204416 <_ZN181_$LT$x86_64..structures..paging..recursive..RecursivePageTable$LT$$u27$a$GT$$u20$as$u20$x86_64..structures..paging..recursive..Mapper$LT$x86_64..structures..paging..Size4KiB$GT$$GT$6map_to17h56079748e3b8f5b4E+0x226>
  204428:	48 8b bc 24 28 01 00 	mov    rdi,QWORD PTR [rsp+0x128]
  20442f:	00 
  204430:	48 8d 84 24 e0 00 00 	lea    rax,[rsp+0xe0]
  204437:	00 
  204438:	48 89 bc 24 90 00 00 	mov    QWORD PTR [rsp+0x90],rdi
  20443f:	00 
  204440:	48 89 c7             	mov    rdi,rax
  204443:	e8 b8 ac 00 00       	call   20f100 <_ZN50_$LT$x86_64..structures..paging..Page$LT$S$GT$$GT$8p3_index17h1058a0280a2a184fE>
  204448:	66 89 84 24 8e 00 00 	mov    WORD PTR [rsp+0x8e],ax
  20444f:	00 
  204450:	48 8b bc 24 90 00 00 	mov    rdi,QWORD PTR [rsp+0x90]
  204457:	00 
  204458:	66 8b 84 24 8e 00 00 	mov    ax,WORD PTR [rsp+0x8e]
  20445f:	00 
  204460:	0f b7 f0             	movzx  esi,ax
  204463:	e8 28 6b 00 00       	call   20af90 <_ZN110_$LT$x86_64..structures..paging..page_table..PageTable$u20$as$u20$core..ops..index..IndexMut$LT$ux..u9$GT$$GT$9index_mut17hc859036545f8b0baE>
  204468:	48 89 84 24 80 00 00 	mov    QWORD PTR [rsp+0x80],rax
  20446f:	00 
  204470:	48 8b 84 24 68 01 00 	mov    rax,QWORD PTR [rsp+0x168]
  204477:	00 
  204478:	48 89 84 24 a0 01 00 	mov    QWORD PTR [rsp+0x1a0],rax
  20447f:	00 
  204480:	48 8b 8c 24 08 01 00 	mov    rcx,QWORD PTR [rsp+0x108]
  204487:	00 
  204488:	48 8b 94 24 a0 01 00 	mov    rdx,QWORD PTR [rsp+0x1a0]
  20448f:	00 
  204490:	48 8d bc 24 90 01 00 	lea    rdi,[rsp+0x190]
  204497:	00 
  204498:	48 8b b4 24 80 00 00 	mov    rsi,QWORD PTR [rsp+0x80]
  20449f:	00 
  2044a0:	e8 6b 03 00 00       	call   204810 <_ZN6x86_6410structures6paging9recursive18RecursivePageTable17create_next_table17h9da10ebfc33e8bbcE>
  2044a5:	48 8d bc 24 80 01 00 	lea    rdi,[rsp+0x180]
  2044ac:	00 
  2044ad:	48 8d b4 24 90 01 00 	lea    rsi,[rsp+0x190]
  2044b4:	00 
  2044b5:	e8 e6 42 00 00       	call   2087a0 <_ZN78_$LT$core..result..Result$LT$T$C$$u20$E$GT$$u20$as$u20$core..ops..try..Try$GT$11into_result17hdfda15f11a5a072fE>
  2044ba:	0f b6 84 24 80 01 00 	movzx  eax,BYTE PTR [rsp+0x180]
  2044c1:	00 
  2044c2:	89 c1                	mov    ecx,eax
  2044c4:	88 ca                	mov    dl,cl
  2044c6:	f6 c2 01             	test   dl,0x1
  2044c9:	48 89 4c 24 78       	mov    QWORD PTR [rsp+0x78],rcx
  2044ce:	74 17                	je     2044e7 <_ZN181_$LT$x86_64..structures..paging..recursive..RecursivePageTable$LT$$u27$a$GT$$u20$as$u20$x86_64..structures..paging..recursive..Mapper$LT$x86_64..structures..paging..Size4KiB$GT$$GT$6map_to17h56079748e3b8f5b4E+0x2f7>
  2044d0:	eb 00                	jmp    2044d2 <_ZN181_$LT$x86_64..structures..paging..recursive..RecursivePageTable$LT$$u27$a$GT$$u20$as$u20$x86_64..structures..paging..recursive..Mapper$LT$x86_64..structures..paging..Size4KiB$GT$$GT$6map_to17h56079748e3b8f5b4E+0x2e2>
  2044d2:	48 8b 44 24 78       	mov    rax,QWORD PTR [rsp+0x78]
  2044d7:	48 83 e8 01          	sub    rax,0x1
  2044db:	48 89 44 24 70       	mov    QWORD PTR [rsp+0x70],rax
  2044e0:	74 6b                	je     20454d <_ZN181_$LT$x86_64..structures..paging..recursive..RecursivePageTable$LT$$u27$a$GT$$u20$as$u20$x86_64..structures..paging..recursive..Mapper$LT$x86_64..structures..paging..Size4KiB$GT$$GT$6map_to17h56079748e3b8f5b4E+0x35d>
  2044e2:	e9 8c fe ff ff       	jmp    204373 <_ZN181_$LT$x86_64..structures..paging..recursive..RecursivePageTable$LT$$u27$a$GT$$u20$as$u20$x86_64..structures..paging..recursive..Mapper$LT$x86_64..structures..paging..Size4KiB$GT$$GT$6map_to17h56079748e3b8f5b4E+0x183>
  2044e7:	48 8b 84 24 88 01 00 	mov    rax,QWORD PTR [rsp+0x188]
  2044ee:	00 
  2044ef:	48 89 84 24 b0 01 00 	mov    QWORD PTR [rsp+0x1b0],rax
  2044f6:	00 
  2044f7:	48 8b 84 24 b0 01 00 	mov    rax,QWORD PTR [rsp+0x1b0]
  2044fe:	00 
  2044ff:	48 89 84 24 78 01 00 	mov    QWORD PTR [rsp+0x178],rax
  204506:	00 
  204507:	48 8b 84 24 e0 00 00 	mov    rax,QWORD PTR [rsp+0xe0]
  20450e:	00 
  20450f:	48 89 84 24 c0 01 00 	mov    QWORD PTR [rsp+0x1c0],rax
  204516:	00 
  204517:	48 8b 84 24 d8 00 00 	mov    rax,QWORD PTR [rsp+0xd8]
  20451e:	00 
  20451f:	66 8b 48 08          	mov    cx,WORD PTR [rax+0x8]
  204523:	48 8b bc 24 c0 01 00 	mov    rdi,QWORD PTR [rsp+0x1c0]
  20452a:	00 
  20452b:	0f b7 f1             	movzx  esi,cx
  20452e:	e8 ad 82 00 00       	call   20c7e0 <_ZN6x86_6410structures6paging9recursive7p1_page17h04b50b398bdd65c4E>
  204533:	48 89 84 24 38 02 00 	mov    QWORD PTR [rsp+0x238],rax
  20453a:	00 
  20453b:	48 8b 84 24 38 02 00 	mov    rax,QWORD PTR [rsp+0x238]
  204542:	00 
  204543:	48 89 84 24 b8 01 00 	mov    QWORD PTR [rsp+0x1b8],rax
  20454a:	00 
  20454b:	eb 3a                	jmp    204587 <_ZN181_$LT$x86_64..structures..paging..recursive..RecursivePageTable$LT$$u27$a$GT$$u20$as$u20$x86_64..structures..paging..recursive..Mapper$LT$x86_64..structures..paging..Size4KiB$GT$$GT$6map_to17h56079748e3b8f5b4E+0x397>
  20454d:	8a 84 24 81 01 00 00 	mov    al,BYTE PTR [rsp+0x181]
  204554:	88 84 24 af 01 00 00 	mov    BYTE PTR [rsp+0x1af],al
  20455b:	0f b6 bc 24 af 01 00 	movzx  edi,BYTE PTR [rsp+0x1af]
  204562:	00 
  204563:	e8 58 02 00 00       	call   2047c0 <_ZN50_$LT$T$u20$as$u20$core..convert..From$LT$T$GT$$GT$4from17h59eba1534d3571b7E>
  204568:	88 44 24 6f          	mov    BYTE PTR [rsp+0x6f],al
  20456c:	48 8b bc 24 d0 00 00 	mov    rdi,QWORD PTR [rsp+0xd0]
  204573:	00 
  204574:	8a 44 24 6f          	mov    al,BYTE PTR [rsp+0x6f]
  204578:	0f b6 f0             	movzx  esi,al
  20457b:	e8 00 42 00 00       	call   208780 <_ZN78_$LT$core..result..Result$LT$T$C$$u20$E$GT$$u20$as$u20$core..ops..try..Try$GT$10from_error17h1d936e6a9fb0d486E>
  204580:	eb 00                	jmp    204582 <_ZN181_$LT$x86_64..structures..paging..recursive..RecursivePageTable$LT$$u27$a$GT$$u20$as$u20$x86_64..structures..paging..recursive..Mapper$LT$x86_64..structures..paging..Size4KiB$GT$$GT$6map_to17h56079748e3b8f5b4E+0x392>
  204582:	e9 9f fe ff ff       	jmp    204426 <_ZN181_$LT$x86_64..structures..paging..recursive..RecursivePageTable$LT$$u27$a$GT$$u20$as$u20$x86_64..structures..paging..recursive..Mapper$LT$x86_64..structures..paging..Size4KiB$GT$$GT$6map_to17h56079748e3b8f5b4E+0x236>
  204587:	48 8b bc 24 78 01 00 	mov    rdi,QWORD PTR [rsp+0x178]
  20458e:	00 
  20458f:	48 8d 84 24 e0 00 00 	lea    rax,[rsp+0xe0]
  204596:	00 
  204597:	48 89 7c 24 60       	mov    QWORD PTR [rsp+0x60],rdi
  20459c:	48 89 c7             	mov    rdi,rax
  20459f:	e8 9c ab 00 00       	call   20f140 <_ZN50_$LT$x86_64..structures..paging..Page$LT$S$GT$$GT$8p2_index17h2b4bf1fad3e24d92E>
  2045a4:	66 89 44 24 5e       	mov    WORD PTR [rsp+0x5e],ax
  2045a9:	48 8b 7c 24 60       	mov    rdi,QWORD PTR [rsp+0x60]
  2045ae:	66 8b 44 24 5e       	mov    ax,WORD PTR [rsp+0x5e]
  2045b3:	0f b7 f0             	movzx  esi,ax
  2045b6:	e8 d5 69 00 00       	call   20af90 <_ZN110_$LT$x86_64..structures..paging..page_table..PageTable$u20$as$u20$core..ops..index..IndexMut$LT$ux..u9$GT$$GT$9index_mut17hc859036545f8b0baE>
  2045bb:	48 89 44 24 50       	mov    QWORD PTR [rsp+0x50],rax
  2045c0:	48 8b 84 24 b8 01 00 	mov    rax,QWORD PTR [rsp+0x1b8]
  2045c7:	00 
  2045c8:	48 89 84 24 f0 01 00 	mov    QWORD PTR [rsp+0x1f0],rax
  2045cf:	00 
  2045d0:	48 8b 8c 24 08 01 00 	mov    rcx,QWORD PTR [rsp+0x108]
  2045d7:	00 
  2045d8:	48 8b 94 24 f0 01 00 	mov    rdx,QWORD PTR [rsp+0x1f0]
  2045df:	00 
  2045e0:	48 8d bc 24 e0 01 00 	lea    rdi,[rsp+0x1e0]
  2045e7:	00 
  2045e8:	48 8b 74 24 50       	mov    rsi,QWORD PTR [rsp+0x50]
  2045ed:	e8 1e 02 00 00       	call   204810 <_ZN6x86_6410structures6paging9recursive18RecursivePageTable17create_next_table17h9da10ebfc33e8bbcE>
  2045f2:	48 8d bc 24 d0 01 00 	lea    rdi,[rsp+0x1d0]
  2045f9:	00 
  2045fa:	48 8d b4 24 e0 01 00 	lea    rsi,[rsp+0x1e0]
  204601:	00 
  204602:	e8 99 41 00 00       	call   2087a0 <_ZN78_$LT$core..result..Result$LT$T$C$$u20$E$GT$$u20$as$u20$core..ops..try..Try$GT$11into_result17hdfda15f11a5a072fE>
  204607:	0f b6 84 24 d0 01 00 	movzx  eax,BYTE PTR [rsp+0x1d0]
  20460e:	00 
  20460f:	89 c1                	mov    ecx,eax
  204611:	88 ca                	mov    dl,cl
  204613:	f6 c2 01             	test   dl,0x1
  204616:	48 89 4c 24 48       	mov    QWORD PTR [rsp+0x48],rcx
  20461b:	74 17                	je     204634 <_ZN181_$LT$x86_64..structures..paging..recursive..RecursivePageTable$LT$$u27$a$GT$$u20$as$u20$x86_64..structures..paging..recursive..Mapper$LT$x86_64..structures..paging..Size4KiB$GT$$GT$6map_to17h56079748e3b8f5b4E+0x444>
  20461d:	eb 00                	jmp    20461f <_ZN181_$LT$x86_64..structures..paging..recursive..RecursivePageTable$LT$$u27$a$GT$$u20$as$u20$x86_64..structures..paging..recursive..Mapper$LT$x86_64..structures..paging..Size4KiB$GT$$GT$6map_to17h56079748e3b8f5b4E+0x42f>
  20461f:	48 8b 44 24 48       	mov    rax,QWORD PTR [rsp+0x48]
  204624:	48 83 e8 01          	sub    rax,0x1
  204628:	48 89 44 24 40       	mov    QWORD PTR [rsp+0x40],rax
  20462d:	74 49                	je     204678 <_ZN181_$LT$x86_64..structures..paging..recursive..RecursivePageTable$LT$$u27$a$GT$$u20$as$u20$x86_64..structures..paging..recursive..Mapper$LT$x86_64..structures..paging..Size4KiB$GT$$GT$6map_to17h56079748e3b8f5b4E+0x488>
  20462f:	e9 3f fd ff ff       	jmp    204373 <_ZN181_$LT$x86_64..structures..paging..recursive..RecursivePageTable$LT$$u27$a$GT$$u20$as$u20$x86_64..structures..paging..recursive..Mapper$LT$x86_64..structures..paging..Size4KiB$GT$$GT$6map_to17h56079748e3b8f5b4E+0x183>
  204634:	48 8b 84 24 d8 01 00 	mov    rax,QWORD PTR [rsp+0x1d8]
  20463b:	00 
  20463c:	48 89 84 24 00 02 00 	mov    QWORD PTR [rsp+0x200],rax
  204643:	00 
  204644:	48 8b 84 24 00 02 00 	mov    rax,QWORD PTR [rsp+0x200]
  20464b:	00 
  20464c:	48 89 84 24 c8 01 00 	mov    QWORD PTR [rsp+0x1c8],rax
  204653:	00 
  204654:	48 8b bc 24 c8 01 00 	mov    rdi,QWORD PTR [rsp+0x1c8]
  20465b:	00 
  20465c:	48 8d 84 24 e0 00 00 	lea    rax,[rsp+0xe0]
  204663:	00 
  204664:	48 89 7c 24 38       	mov    QWORD PTR [rsp+0x38],rdi
  204669:	48 89 c7             	mov    rdi,rax
  20466c:	e8 9f ac 00 00       	call   20f310 <_ZN41_$LT$x86_64..structures..paging..Page$GT$8p1_index17hee34c4c155997fb8E>
  204671:	66 89 44 24 36       	mov    WORD PTR [rsp+0x36],ax
  204676:	eb 3a                	jmp    2046b2 <_ZN181_$LT$x86_64..structures..paging..recursive..RecursivePageTable$LT$$u27$a$GT$$u20$as$u20$x86_64..structures..paging..recursive..Mapper$LT$x86_64..structures..paging..Size4KiB$GT$$GT$6map_to17h56079748e3b8f5b4E+0x4c2>
  204678:	8a 84 24 d1 01 00 00 	mov    al,BYTE PTR [rsp+0x1d1]
  20467f:	88 84 24 ff 01 00 00 	mov    BYTE PTR [rsp+0x1ff],al
  204686:	0f b6 bc 24 ff 01 00 	movzx  edi,BYTE PTR [rsp+0x1ff]
  20468d:	00 
  20468e:	e8 2d 01 00 00       	call   2047c0 <_ZN50_$LT$T$u20$as$u20$core..convert..From$LT$T$GT$$GT$4from17h59eba1534d3571b7E>
  204693:	88 44 24 35          	mov    BYTE PTR [rsp+0x35],al
  204697:	48 8b bc 24 d0 00 00 	mov    rdi,QWORD PTR [rsp+0xd0]
  20469e:	00 
  20469f:	8a 44 24 35          	mov    al,BYTE PTR [rsp+0x35]
  2046a3:	0f b6 f0             	movzx  esi,al
  2046a6:	e8 d5 40 00 00       	call   208780 <_ZN78_$LT$core..result..Result$LT$T$C$$u20$E$GT$$u20$as$u20$core..ops..try..Try$GT$10from_error17h1d936e6a9fb0d486E>
  2046ab:	eb 00                	jmp    2046ad <_ZN181_$LT$x86_64..structures..paging..recursive..RecursivePageTable$LT$$u27$a$GT$$u20$as$u20$x86_64..structures..paging..recursive..Mapper$LT$x86_64..structures..paging..Size4KiB$GT$$GT$6map_to17h56079748e3b8f5b4E+0x4bd>
  2046ad:	e9 d0 fe ff ff       	jmp    204582 <_ZN181_$LT$x86_64..structures..paging..recursive..RecursivePageTable$LT$$u27$a$GT$$u20$as$u20$x86_64..structures..paging..recursive..Mapper$LT$x86_64..structures..paging..Size4KiB$GT$$GT$6map_to17h56079748e3b8f5b4E+0x392>
  2046b2:	48 8b 7c 24 38       	mov    rdi,QWORD PTR [rsp+0x38]
  2046b7:	66 8b 44 24 36       	mov    ax,WORD PTR [rsp+0x36]
  2046bc:	0f b7 f0             	movzx  esi,ax
  2046bf:	e8 4c 68 00 00       	call   20af10 <_ZN107_$LT$x86_64..structures..paging..page_table..PageTable$u20$as$u20$core..ops..index..Index$LT$ux..u9$GT$$GT$5index17h393a32f46f520be4E>
  2046c4:	48 89 44 24 28       	mov    QWORD PTR [rsp+0x28],rax
  2046c9:	48 8b 7c 24 28       	mov    rdi,QWORD PTR [rsp+0x28]
  2046ce:	e8 cd 64 00 00       	call   20aba0 <_ZN6x86_6410structures6paging10page_table14PageTableEntry9is_unused17h014cb4223139373bE>
  2046d3:	88 44 24 27          	mov    BYTE PTR [rsp+0x27],al
  2046d7:	8a 44 24 27          	mov    al,BYTE PTR [rsp+0x27]
  2046db:	34 ff                	xor    al,0xff
  2046dd:	a8 01                	test   al,0x1
  2046df:	75 02                	jne    2046e3 <_ZN181_$LT$x86_64..structures..paging..recursive..RecursivePageTable$LT$$u27$a$GT$$u20$as$u20$x86_64..structures..paging..recursive..Mapper$LT$x86_64..structures..paging..Size4KiB$GT$$GT$6map_to17h56079748e3b8f5b4E+0x4f3>
  2046e1:	eb 1f                	jmp    204702 <_ZN181_$LT$x86_64..structures..paging..recursive..RecursivePageTable$LT$$u27$a$GT$$u20$as$u20$x86_64..structures..paging..recursive..Mapper$LT$x86_64..structures..paging..Size4KiB$GT$$GT$6map_to17h56079748e3b8f5b4E+0x512>
  2046e3:	c6 84 24 0f 02 00 00 	mov    BYTE PTR [rsp+0x20f],0x2
  2046ea:	02 
  2046eb:	8a 84 24 0f 02 00 00 	mov    al,BYTE PTR [rsp+0x20f]
  2046f2:	48 8b 8c 24 d0 00 00 	mov    rcx,QWORD PTR [rsp+0xd0]
  2046f9:	00 
  2046fa:	88 41 01             	mov    BYTE PTR [rcx+0x1],al
  2046fd:	c6 01 01             	mov    BYTE PTR [rcx],0x1
  204700:	eb ab                	jmp    2046ad <_ZN181_$LT$x86_64..structures..paging..recursive..RecursivePageTable$LT$$u27$a$GT$$u20$as$u20$x86_64..structures..paging..recursive..Mapper$LT$x86_64..structures..paging..Size4KiB$GT$$GT$6map_to17h56079748e3b8f5b4E+0x4bd>
  204702:	48 8b bc 24 c8 01 00 	mov    rdi,QWORD PTR [rsp+0x1c8]
  204709:	00 
  20470a:	48 8d 84 24 e0 00 00 	lea    rax,[rsp+0xe0]
  204711:	00 
  204712:	48 89 7c 24 18       	mov    QWORD PTR [rsp+0x18],rdi
  204717:	48 89 c7             	mov    rdi,rax
  20471a:	e8 f1 ab 00 00       	call   20f310 <_ZN41_$LT$x86_64..structures..paging..Page$GT$8p1_index17hee34c4c155997fb8E>
  20471f:	66 89 44 24 16       	mov    WORD PTR [rsp+0x16],ax
  204724:	48 8b 7c 24 18       	mov    rdi,QWORD PTR [rsp+0x18]
  204729:	66 8b 44 24 16       	mov    ax,WORD PTR [rsp+0x16]
  20472e:	0f b7 f0             	movzx  esi,ax
  204731:	e8 5a 68 00 00       	call   20af90 <_ZN110_$LT$x86_64..structures..paging..page_table..PageTable$u20$as$u20$core..ops..index..IndexMut$LT$ux..u9$GT$$GT$9index_mut17hc859036545f8b0baE>
  204736:	48 89 44 24 08       	mov    QWORD PTR [rsp+0x8],rax
  20473b:	48 8b 84 24 f0 00 00 	mov    rax,QWORD PTR [rsp+0xf0]
  204742:	00 
  204743:	48 89 84 24 10 02 00 	mov    QWORD PTR [rsp+0x210],rax
  20474a:	00 
  20474b:	48 8b 94 24 00 01 00 	mov    rdx,QWORD PTR [rsp+0x100]
  204752:	00 
  204753:	48 8b b4 24 10 02 00 	mov    rsi,QWORD PTR [rsp+0x210]
  20475a:	00 
  20475b:	48 8b 7c 24 08       	mov    rdi,QWORD PTR [rsp+0x8]
  204760:	e8 5b 66 00 00       	call   20adc0 <_ZN6x86_6410structures6paging10page_table14PageTableEntry9set_frame17h8192bc7348ead9c9E>
  204765:	48 8b 84 24 e0 00 00 	mov    rax,QWORD PTR [rsp+0xe0]
  20476c:	00 
  20476d:	48 89 84 24 20 02 00 	mov    QWORD PTR [rsp+0x220],rax
  204774:	00 
  204775:	48 8b bc 24 20 02 00 	mov    rdi,QWORD PTR [rsp+0x220]
  20477c:	00 
  20477d:	e8 2e 7d 00 00       	call   20c4b0 <_ZN68_$LT$x86_64..structures..paging..recursive..MapperFlush$LT$S$GT$$GT$3new17hda199aee8b1c8910E>
  204782:	48 89 84 24 40 02 00 	mov    QWORD PTR [rsp+0x240],rax
  204789:	00 
  20478a:	48 8b 84 24 40 02 00 	mov    rax,QWORD PTR [rsp+0x240]
  204791:	00 
  204792:	48 89 84 24 18 02 00 	mov    QWORD PTR [rsp+0x218],rax
  204799:	00 
  20479a:	48 8b 84 24 18 02 00 	mov    rax,QWORD PTR [rsp+0x218]
  2047a1:	00 
  2047a2:	48 8b 8c 24 d0 00 00 	mov    rcx,QWORD PTR [rsp+0xd0]
  2047a9:	00 
  2047aa:	48 89 41 08          	mov    QWORD PTR [rcx+0x8],rax
  2047ae:	c6 01 00             	mov    BYTE PTR [rcx],0x0
  2047b1:	e9 60 fc ff ff       	jmp    204416 <_ZN181_$LT$x86_64..structures..paging..recursive..RecursivePageTable$LT$$u27$a$GT$$u20$as$u20$x86_64..structures..paging..recursive..Mapper$LT$x86_64..structures..paging..Size4KiB$GT$$GT$6map_to17h56079748e3b8f5b4E+0x226>
  2047b6:	cc                   	int3   
  2047b7:	cc                   	int3   
  2047b8:	cc                   	int3   
  2047b9:	cc                   	int3   
  2047ba:	cc                   	int3   
  2047bb:	cc                   	int3   
  2047bc:	cc                   	int3   
  2047bd:	cc                   	int3   
  2047be:	cc                   	int3   
  2047bf:	cc                   	int3   

00000000002047c0 <_ZN50_$LT$T$u20$as$u20$core..convert..From$LT$T$GT$$GT$4from17h59eba1534d3571b7E>:
  2047c0:	48 83 ec 01          	sub    rsp,0x1
  2047c4:	40 88 f8             	mov    al,dil
  2047c7:	88 04 24             	mov    BYTE PTR [rsp],al
  2047ca:	8a 04 24             	mov    al,BYTE PTR [rsp]
  2047cd:	48 83 c4 01          	add    rsp,0x1
  2047d1:	c3                   	ret    
  2047d2:	cc                   	int3   
  2047d3:	cc                   	int3   
  2047d4:	cc                   	int3   
  2047d5:	cc                   	int3   
  2047d6:	cc                   	int3   
  2047d7:	cc                   	int3   
  2047d8:	cc                   	int3   
  2047d9:	cc                   	int3   
  2047da:	cc                   	int3   
  2047db:	cc                   	int3   
  2047dc:	cc                   	int3   
  2047dd:	cc                   	int3   
  2047de:	cc                   	int3   
  2047df:	cc                   	int3   

00000000002047e0 <_ZN68_$LT$x86_64..structures..paging..recursive..MapperFlush$LT$S$GT$$GT$5flush17h0d4948a364d010a4E>:
  2047e0:	48 83 ec 18          	sub    rsp,0x18
  2047e4:	48 89 7c 24 10       	mov    QWORD PTR [rsp+0x10],rdi
  2047e9:	48 8b 7c 24 10       	mov    rdi,QWORD PTR [rsp+0x10]
  2047ee:	48 89 7c 24 08       	mov    QWORD PTR [rsp+0x8],rdi
  2047f3:	48 8d 7c 24 08       	lea    rdi,[rsp+0x8]
  2047f8:	e8 b3 a8 00 00       	call   20f0b0 <_ZN50_$LT$x86_64..structures..paging..Page$LT$S$GT$$GT$13start_address17hc3cf334849b65017E>
  2047fd:	48 89 04 24          	mov    QWORD PTR [rsp],rax
  204801:	48 8b 3c 24          	mov    rdi,QWORD PTR [rsp]
  204805:	e8 76 7c 00 00       	call   20c480 <_ZN6x86_6412instructions3tlb5flush17h0cac7687b672005aE>
  20480a:	48 83 c4 18          	add    rsp,0x18
  20480e:	c3                   	ret    
  20480f:	cc                   	int3   

0000000000204810 <_ZN6x86_6410structures6paging9recursive18RecursivePageTable17create_next_table17h9da10ebfc33e8bbcE>:
  204810:	48 83 ec 38          	sub    rsp,0x38
  204814:	48 89 f8             	mov    rax,rdi
  204817:	48 89 74 24 10       	mov    QWORD PTR [rsp+0x10],rsi
  20481c:	48 89 54 24 20       	mov    QWORD PTR [rsp+0x20],rdx
  204821:	48 8b 54 24 20       	mov    rdx,QWORD PTR [rsp+0x20]
  204826:	48 89 54 24 18       	mov    QWORD PTR [rsp+0x18],rdx
  20482b:	48 89 4c 24 28       	mov    QWORD PTR [rsp+0x28],rcx
  204830:	48 8b 74 24 10       	mov    rsi,QWORD PTR [rsp+0x10]
  204835:	48 8b 4c 24 18       	mov    rcx,QWORD PTR [rsp+0x18]
  20483a:	48 89 4c 24 30       	mov    QWORD PTR [rsp+0x30],rcx
  20483f:	48 8b 4c 24 28       	mov    rcx,QWORD PTR [rsp+0x28]
  204844:	48 8b 54 24 30       	mov    rdx,QWORD PTR [rsp+0x30]
  204849:	48 89 44 24 08       	mov    QWORD PTR [rsp+0x8],rax
  20484e:	e8 0d 00 00 00       	call   204860 <_ZN6x86_6410structures6paging9recursive18RecursivePageTable17create_next_table5inner17h7a56a0980c8bd727E>
  204853:	48 8b 44 24 08       	mov    rax,QWORD PTR [rsp+0x8]
  204858:	48 83 c4 38          	add    rsp,0x38
  20485c:	c3                   	ret    
  20485d:	cc                   	int3   
  20485e:	cc                   	int3   
  20485f:	cc                   	int3   

0000000000204860 <_ZN6x86_6410structures6paging9recursive18RecursivePageTable17create_next_table5inner17h7a56a0980c8bd727E>:
  204860:	48 81 ec a8 00 00 00 	sub    rsp,0xa8
  204867:	48 89 f8             	mov    rax,rdi
  20486a:	48 89 74 24 38       	mov    QWORD PTR [rsp+0x38],rsi
  20486f:	48 89 54 24 48       	mov    QWORD PTR [rsp+0x48],rdx
  204874:	48 8b 54 24 48       	mov    rdx,QWORD PTR [rsp+0x48]
  204879:	48 89 54 24 40       	mov    QWORD PTR [rsp+0x40],rdx
  20487e:	48 89 4c 24 50       	mov    QWORD PTR [rsp+0x50],rcx
  204883:	48 8b 4c 24 38       	mov    rcx,QWORD PTR [rsp+0x38]
  204888:	48 89 7c 24 30       	mov    QWORD PTR [rsp+0x30],rdi
  20488d:	48 89 cf             	mov    rdi,rcx
  204890:	48 89 44 24 28       	mov    QWORD PTR [rsp+0x28],rax
  204895:	e8 06 63 00 00       	call   20aba0 <_ZN6x86_6410structures6paging10page_table14PageTableEntry9is_unused17h014cb4223139373bE>
  20489a:	88 44 24 27          	mov    BYTE PTR [rsp+0x27],al
  20489e:	8a 44 24 27          	mov    al,BYTE PTR [rsp+0x27]
  2048a2:	a8 01                	test   al,0x1
  2048a4:	75 02                	jne    2048a8 <_ZN6x86_6410structures6paging9recursive18RecursivePageTable17create_next_table5inner17h7a56a0980c8bd727E+0x48>
  2048a6:	eb 11                	jmp    2048b9 <_ZN6x86_6410structures6paging9recursive18RecursivePageTable17create_next_table5inner17h7a56a0980c8bd727E+0x59>
  2048a8:	48 8b 74 24 50       	mov    rsi,QWORD PTR [rsp+0x50]
  2048ad:	48 8d 7c 24 60       	lea    rdi,[rsp+0x60]
  2048b2:	e8 19 0e 00 00       	call   2056d0 <_ZN177_$LT$rust_kernel..memory..frame_allocator..FrameStackAllocator$u20$as$u20$x86_64..structures..paging..frame_alloc..FrameAllocator$LT$x86_64..structures..paging..Size4KiB$GT$$GT$5alloc17h93b7d26b5485d176E>
  2048b7:	eb 0a                	jmp    2048c3 <_ZN6x86_6410structures6paging9recursive18RecursivePageTable17create_next_table5inner17h7a56a0980c8bd727E+0x63>
  2048b9:	c6 44 24 5f 00       	mov    BYTE PTR [rsp+0x5f],0x0
  2048be:	e9 84 00 00 00       	jmp    204947 <_ZN6x86_6410structures6paging9recursive18RecursivePageTable17create_next_table5inner17h7a56a0980c8bd727E+0xe7>
  2048c3:	48 83 7c 24 60 01    	cmp    QWORD PTR [rsp+0x60],0x1
  2048c9:	74 1c                	je     2048e7 <_ZN6x86_6410structures6paging9recursive18RecursivePageTable17create_next_table5inner17h7a56a0980c8bd727E+0x87>
  2048cb:	c6 84 24 87 00 00 00 	mov    BYTE PTR [rsp+0x87],0x0
  2048d2:	00 
  2048d3:	8a 84 24 87 00 00 00 	mov    al,BYTE PTR [rsp+0x87]
  2048da:	48 8b 4c 24 30       	mov    rcx,QWORD PTR [rsp+0x30]
  2048df:	88 41 01             	mov    BYTE PTR [rcx+0x1],al
  2048e2:	c6 01 01             	mov    BYTE PTR [rcx],0x1
  2048e5:	eb 5e                	jmp    204945 <_ZN6x86_6410structures6paging9recursive18RecursivePageTable17create_next_table5inner17h7a56a0980c8bd727E+0xe5>
  2048e7:	b8 01 00 00 00       	mov    eax,0x1
  2048ec:	89 c7                	mov    edi,eax
  2048ee:	b8 02 00 00 00       	mov    eax,0x2
  2048f3:	89 c6                	mov    esi,eax
  2048f5:	48 8b 4c 24 68       	mov    rcx,QWORD PTR [rsp+0x68]
  2048fa:	48 89 4c 24 70       	mov    QWORD PTR [rsp+0x70],rcx
  2048ff:	48 8b 4c 24 38       	mov    rcx,QWORD PTR [rsp+0x38]
  204904:	48 8b 54 24 70       	mov    rdx,QWORD PTR [rsp+0x70]
  204909:	48 89 54 24 78       	mov    QWORD PTR [rsp+0x78],rdx
  20490e:	48 89 4c 24 18       	mov    QWORD PTR [rsp+0x18],rcx
  204913:	e8 a8 59 00 00       	call   20a2c0 <_ZN96_$LT$x86_64..structures..paging..page_table..PageTableFlags$u20$as$u20$core..ops..bit..BitOr$GT$5bitor17h3d804951008b7071E>
  204918:	48 89 44 24 10       	mov    QWORD PTR [rsp+0x10],rax
  20491d:	48 8b 74 24 78       	mov    rsi,QWORD PTR [rsp+0x78]
  204922:	48 8b 7c 24 18       	mov    rdi,QWORD PTR [rsp+0x18]
  204927:	48 8b 54 24 10       	mov    rdx,QWORD PTR [rsp+0x10]
  20492c:	e8 8f 64 00 00       	call   20adc0 <_ZN6x86_6410structures6paging10page_table14PageTableEntry9set_frame17h8192bc7348ead9c9E>
  204931:	c6 44 24 5f 01       	mov    BYTE PTR [rsp+0x5f],0x1
  204936:	eb 0f                	jmp    204947 <_ZN6x86_6410structures6paging9recursive18RecursivePageTable17create_next_table5inner17h7a56a0980c8bd727E+0xe7>
  204938:	48 8b 44 24 28       	mov    rax,QWORD PTR [rsp+0x28]
  20493d:	48 81 c4 a8 00 00 00 	add    rsp,0xa8
  204944:	c3                   	ret    
  204945:	eb f1                	jmp    204938 <_ZN6x86_6410structures6paging9recursive18RecursivePageTable17create_next_table5inner17h7a56a0980c8bd727E+0xd8>
  204947:	48 8b 7c 24 38       	mov    rdi,QWORD PTR [rsp+0x38]
  20494c:	e8 8f 62 00 00       	call   20abe0 <_ZN6x86_6410structures6paging10page_table14PageTableEntry5flags17h1c870c623f3310f1E>
  204951:	48 89 84 24 88 00 00 	mov    QWORD PTR [rsp+0x88],rax
  204958:	00 
  204959:	b8 80 00 00 00       	mov    eax,0x80
  20495e:	89 c6                	mov    esi,eax
  204960:	48 8d bc 24 88 00 00 	lea    rdi,[rsp+0x88]
  204967:	00 
  204968:	e8 c3 58 00 00       	call   20a230 <_ZN6x86_6410structures6paging10page_table14PageTableFlags8contains17h369f45aeffe331c6E>
  20496d:	88 44 24 0f          	mov    BYTE PTR [rsp+0xf],al
  204971:	8a 44 24 0f          	mov    al,BYTE PTR [rsp+0xf]
  204975:	a8 01                	test   al,0x1
  204977:	75 02                	jne    20497b <_ZN6x86_6410structures6paging9recursive18RecursivePageTable17create_next_table5inner17h7a56a0980c8bd727E+0x11b>
  204979:	eb 1c                	jmp    204997 <_ZN6x86_6410structures6paging9recursive18RecursivePageTable17create_next_table5inner17h7a56a0980c8bd727E+0x137>
  20497b:	c6 84 24 97 00 00 00 	mov    BYTE PTR [rsp+0x97],0x1
  204982:	01 
  204983:	8a 84 24 97 00 00 00 	mov    al,BYTE PTR [rsp+0x97]
  20498a:	48 8b 4c 24 30       	mov    rcx,QWORD PTR [rsp+0x30]
  20498f:	88 41 01             	mov    BYTE PTR [rcx+0x1],al
  204992:	c6 01 01             	mov    BYTE PTR [rcx],0x1
  204995:	eb ae                	jmp    204945 <_ZN6x86_6410structures6paging9recursive18RecursivePageTable17create_next_table5inner17h7a56a0980c8bd727E+0xe5>
  204997:	48 8d 7c 24 40       	lea    rdi,[rsp+0x40]
  20499c:	e8 0f a7 00 00       	call   20f0b0 <_ZN50_$LT$x86_64..structures..paging..Page$LT$S$GT$$GT$13start_address17hc3cf334849b65017E>
  2049a1:	48 89 04 24          	mov    QWORD PTR [rsp],rax
  2049a5:	48 8b 3c 24          	mov    rdi,QWORD PTR [rsp]
  2049a9:	e8 72 99 00 00       	call   20e320 <_ZN6x86_644addr8VirtAddr10as_mut_ptr17haff60eafd399ae03E>
  2049ae:	48 89 84 24 98 00 00 	mov    QWORD PTR [rsp+0x98],rax
  2049b5:	00 
  2049b6:	48 8b 84 24 98 00 00 	mov    rax,QWORD PTR [rsp+0x98]
  2049bd:	00 
  2049be:	48 89 84 24 a0 00 00 	mov    QWORD PTR [rsp+0xa0],rax
  2049c5:	00 
  2049c6:	f6 44 24 5f 01       	test   BYTE PTR [rsp+0x5f],0x1
  2049cb:	74 0f                	je     2049dc <_ZN6x86_6410structures6paging9recursive18RecursivePageTable17create_next_table5inner17h7a56a0980c8bd727E+0x17c>
  2049cd:	48 8b bc 24 a0 00 00 	mov    rdi,QWORD PTR [rsp+0xa0]
  2049d4:	00 
  2049d5:	e8 76 64 00 00       	call   20ae50 <_ZN6x86_6410structures6paging10page_table9PageTable4zero17h5b56a6af1fb1cc99E>
  2049da:	eb 00                	jmp    2049dc <_ZN6x86_6410structures6paging9recursive18RecursivePageTable17create_next_table5inner17h7a56a0980c8bd727E+0x17c>
  2049dc:	48 8b 84 24 a0 00 00 	mov    rax,QWORD PTR [rsp+0xa0]
  2049e3:	00 
  2049e4:	48 8b 4c 24 30       	mov    rcx,QWORD PTR [rsp+0x30]
  2049e9:	48 89 41 08          	mov    QWORD PTR [rcx+0x8],rax
  2049ed:	c6 01 00             	mov    BYTE PTR [rcx],0x0
  2049f0:	e9 43 ff ff ff       	jmp    204938 <_ZN6x86_6410structures6paging9recursive18RecursivePageTable17create_next_table5inner17h7a56a0980c8bd727E+0xd8>
  2049f5:	cc                   	int3   
  2049f6:	cc                   	int3   
  2049f7:	cc                   	int3   
  2049f8:	cc                   	int3   
  2049f9:	cc                   	int3   
  2049fa:	cc                   	int3   
  2049fb:	cc                   	int3   
  2049fc:	cc                   	int3   
  2049fd:	cc                   	int3   
  2049fe:	cc                   	int3   
  2049ff:	cc                   	int3   

0000000000204a00 <_ZN4core4char7methods22_$LT$impl$u20$char$GT$11encode_utf817hefd80bfc47950262E>:
  204a00:	41 56                	push   r14
  204a02:	53                   	push   rbx
  204a03:	48 81 ec f8 01 00 00 	sub    rsp,0x1f8
  204a0a:	89 bc 24 24 01 00 00 	mov    DWORD PTR [rsp+0x124],edi
  204a11:	48 89 b4 24 28 01 00 	mov    QWORD PTR [rsp+0x128],rsi
  204a18:	00 
  204a19:	48 89 94 24 30 01 00 	mov    QWORD PTR [rsp+0x130],rdx
  204a20:	00 
  204a21:	8b bc 24 24 01 00 00 	mov    edi,DWORD PTR [rsp+0x124]
  204a28:	89 bc 24 3c 01 00 00 	mov    DWORD PTR [rsp+0x13c],edi
  204a2f:	81 bc 24 3c 01 00 00 	cmp    DWORD PTR [rsp+0x13c],0x80
  204a36:	80 00 00 00 
  204a3a:	72 16                	jb     204a52 <_ZN4core4char7methods22_$LT$impl$u20$char$GT$11encode_utf817hefd80bfc47950262E+0x52>
  204a3c:	eb 0a                	jmp    204a48 <_ZN4core4char7methods22_$LT$impl$u20$char$GT$11encode_utf817hefd80bfc47950262E+0x48>
  204a3e:	c6 84 24 4d 01 00 00 	mov    BYTE PTR [rsp+0x14d],0x1
  204a45:	01 
  204a46:	eb 28                	jmp    204a70 <_ZN4core4char7methods22_$LT$impl$u20$char$GT$11encode_utf817hefd80bfc47950262E+0x70>
  204a48:	c6 84 24 4d 01 00 00 	mov    BYTE PTR [rsp+0x14d],0x0
  204a4f:	00 
  204a50:	eb 1e                	jmp    204a70 <_ZN4core4char7methods22_$LT$impl$u20$char$GT$11encode_utf817hefd80bfc47950262E+0x70>
  204a52:	48 8b bc 24 28 01 00 	mov    rdi,QWORD PTR [rsp+0x128]
  204a59:	00 
  204a5a:	48 8b b4 24 30 01 00 	mov    rsi,QWORD PTR [rsp+0x130]
  204a61:	00 
  204a62:	e8 29 11 00 00       	call   205b90 <_ZN4core5slice29_$LT$impl$u20$$u5b$T$u5d$$GT$8is_empty17h884ecf5c18fb43cdE>
  204a67:	88 84 24 23 01 00 00 	mov    BYTE PTR [rsp+0x123],al
  204a6e:	eb 0c                	jmp    204a7c <_ZN4core4char7methods22_$LT$impl$u20$char$GT$11encode_utf817hefd80bfc47950262E+0x7c>
  204a70:	f6 84 24 4d 01 00 00 	test   BYTE PTR [rsp+0x14d],0x1
  204a77:	01 
  204a78:	75 11                	jne    204a8b <_ZN4core4char7methods22_$LT$impl$u20$char$GT$11encode_utf817hefd80bfc47950262E+0x8b>
  204a7a:	eb 40                	jmp    204abc <_ZN4core4char7methods22_$LT$impl$u20$char$GT$11encode_utf817hefd80bfc47950262E+0xbc>
  204a7c:	8a 84 24 23 01 00 00 	mov    al,BYTE PTR [rsp+0x123]
  204a83:	34 ff                	xor    al,0xff
  204a85:	a8 01                	test   al,0x1
  204a87:	75 b5                	jne    204a3e <_ZN4core4char7methods22_$LT$impl$u20$char$GT$11encode_utf817hefd80bfc47950262E+0x3e>
  204a89:	eb bd                	jmp    204a48 <_ZN4core4char7methods22_$LT$impl$u20$char$GT$11encode_utf817hefd80bfc47950262E+0x48>
  204a8b:	31 c0                	xor    eax,eax
  204a8d:	89 c2                	mov    edx,eax
  204a8f:	8b 84 24 3c 01 00 00 	mov    eax,DWORD PTR [rsp+0x13c]
  204a96:	48 8b bc 24 28 01 00 	mov    rdi,QWORD PTR [rsp+0x128]
  204a9d:	00 
  204a9e:	48 8b b4 24 30 01 00 	mov    rsi,QWORD PTR [rsp+0x130]
  204aa5:	00 
  204aa6:	89 84 24 1c 01 00 00 	mov    DWORD PTR [rsp+0x11c],eax
  204aad:	e8 ae 0f 00 00       	call   205a60 <_ZN4core5slice29_$LT$impl$u20$$u5b$T$u5d$$GT$17get_unchecked_mut17hea9c4740c7530fa5E>
  204ab2:	48 89 84 24 10 01 00 	mov    QWORD PTR [rsp+0x110],rax
  204ab9:	00 
  204aba:	eb 0f                	jmp    204acb <_ZN4core4char7methods22_$LT$impl$u20$char$GT$11encode_utf817hefd80bfc47950262E+0xcb>
  204abc:	81 bc 24 3c 01 00 00 	cmp    DWORD PTR [rsp+0x13c],0x800
  204ac3:	00 08 00 00 
  204ac7:	72 3a                	jb     204b03 <_ZN4core4char7methods22_$LT$impl$u20$char$GT$11encode_utf817hefd80bfc47950262E+0x103>
  204ac9:	eb 2e                	jmp    204af9 <_ZN4core4char7methods22_$LT$impl$u20$char$GT$11encode_utf817hefd80bfc47950262E+0xf9>
  204acb:	8b 84 24 1c 01 00 00 	mov    eax,DWORD PTR [rsp+0x11c]
  204ad2:	88 c1                	mov    cl,al
  204ad4:	48 8b 94 24 10 01 00 	mov    rdx,QWORD PTR [rsp+0x110]
  204adb:	00 
  204adc:	88 0a                	mov    BYTE PTR [rdx],cl
  204ade:	48 c7 84 24 40 01 00 	mov    QWORD PTR [rsp+0x140],0x1
  204ae5:	00 01 00 00 00 
  204aea:	e9 68 05 00 00       	jmp    205057 <_ZN4core4char7methods22_$LT$impl$u20$char$GT$11encode_utf817hefd80bfc47950262E+0x657>
  204aef:	c6 84 24 4e 01 00 00 	mov    BYTE PTR [rsp+0x14e],0x1
  204af6:	01 
  204af7:	eb 29                	jmp    204b22 <_ZN4core4char7methods22_$LT$impl$u20$char$GT$11encode_utf817hefd80bfc47950262E+0x122>
  204af9:	c6 84 24 4e 01 00 00 	mov    BYTE PTR [rsp+0x14e],0x0
  204b00:	00 
  204b01:	eb 1f                	jmp    204b22 <_ZN4core4char7methods22_$LT$impl$u20$char$GT$11encode_utf817hefd80bfc47950262E+0x122>
  204b03:	48 8b bc 24 28 01 00 	mov    rdi,QWORD PTR [rsp+0x128]
  204b0a:	00 
  204b0b:	48 8b b4 24 30 01 00 	mov    rsi,QWORD PTR [rsp+0x130]
  204b12:	00 
  204b13:	e8 d8 5c 00 00       	call   20a7f0 <_ZN4core5slice29_$LT$impl$u20$$u5b$T$u5d$$GT$3len17h48a35758d0cbd2adE>
  204b18:	48 89 84 24 08 01 00 	mov    QWORD PTR [rsp+0x108],rax
  204b1f:	00 
  204b20:	eb 0c                	jmp    204b2e <_ZN4core4char7methods22_$LT$impl$u20$char$GT$11encode_utf817hefd80bfc47950262E+0x12e>
  204b22:	f6 84 24 4e 01 00 00 	test   BYTE PTR [rsp+0x14e],0x1
  204b29:	01 
  204b2a:	75 12                	jne    204b3e <_ZN4core4char7methods22_$LT$impl$u20$char$GT$11encode_utf817hefd80bfc47950262E+0x13e>
  204b2c:	eb 49                	jmp    204b77 <_ZN4core4char7methods22_$LT$impl$u20$char$GT$11encode_utf817hefd80bfc47950262E+0x177>
  204b2e:	48 8b 84 24 08 01 00 	mov    rax,QWORD PTR [rsp+0x108]
  204b35:	00 
  204b36:	48 83 f8 02          	cmp    rax,0x2
  204b3a:	73 b3                	jae    204aef <_ZN4core4char7methods22_$LT$impl$u20$char$GT$11encode_utf817hefd80bfc47950262E+0xef>
  204b3c:	eb bb                	jmp    204af9 <_ZN4core4char7methods22_$LT$impl$u20$char$GT$11encode_utf817hefd80bfc47950262E+0xf9>
  204b3e:	31 c0                	xor    eax,eax
  204b40:	89 c2                	mov    edx,eax
  204b42:	8b 84 24 3c 01 00 00 	mov    eax,DWORD PTR [rsp+0x13c]
  204b49:	c1 e8 06             	shr    eax,0x6
  204b4c:	83 e0 1f             	and    eax,0x1f
  204b4f:	88 c1                	mov    cl,al
  204b51:	48 8b bc 24 28 01 00 	mov    rdi,QWORD PTR [rsp+0x128]
  204b58:	00 
  204b59:	48 8b b4 24 30 01 00 	mov    rsi,QWORD PTR [rsp+0x130]
  204b60:	00 
  204b61:	88 8c 24 07 01 00 00 	mov    BYTE PTR [rsp+0x107],cl
  204b68:	e8 f3 0e 00 00       	call   205a60 <_ZN4core5slice29_$LT$impl$u20$$u5b$T$u5d$$GT$17get_unchecked_mut17hea9c4740c7530fa5E>
  204b6d:	48 89 84 24 f8 00 00 	mov    QWORD PTR [rsp+0xf8],rax
  204b74:	00 
  204b75:	eb 13                	jmp    204b8a <_ZN4core4char7methods22_$LT$impl$u20$char$GT$11encode_utf817hefd80bfc47950262E+0x18a>
  204b77:	81 bc 24 3c 01 00 00 	cmp    DWORD PTR [rsp+0x13c],0x10000
  204b7e:	00 00 01 00 
  204b82:	0f 82 85 00 00 00    	jb     204c0d <_ZN4core4char7methods22_$LT$impl$u20$char$GT$11encode_utf817hefd80bfc47950262E+0x20d>
  204b88:	eb 79                	jmp    204c03 <_ZN4core4char7methods22_$LT$impl$u20$char$GT$11encode_utf817hefd80bfc47950262E+0x203>
  204b8a:	b8 01 00 00 00       	mov    eax,0x1
  204b8f:	89 c2                	mov    edx,eax
  204b91:	8a 8c 24 07 01 00 00 	mov    cl,BYTE PTR [rsp+0x107]
  204b98:	80 c9 c0             	or     cl,0xc0
  204b9b:	48 8b b4 24 f8 00 00 	mov    rsi,QWORD PTR [rsp+0xf8]
  204ba2:	00 
  204ba3:	88 0e                	mov    BYTE PTR [rsi],cl
  204ba5:	8b 84 24 3c 01 00 00 	mov    eax,DWORD PTR [rsp+0x13c]
  204bac:	83 e0 3f             	and    eax,0x3f
  204baf:	88 c1                	mov    cl,al
  204bb1:	48 8b bc 24 28 01 00 	mov    rdi,QWORD PTR [rsp+0x128]
  204bb8:	00 
  204bb9:	48 8b b4 24 30 01 00 	mov    rsi,QWORD PTR [rsp+0x130]
  204bc0:	00 
  204bc1:	88 8c 24 f7 00 00 00 	mov    BYTE PTR [rsp+0xf7],cl
  204bc8:	e8 93 0e 00 00       	call   205a60 <_ZN4core5slice29_$LT$impl$u20$$u5b$T$u5d$$GT$17get_unchecked_mut17hea9c4740c7530fa5E>
  204bcd:	48 89 84 24 e8 00 00 	mov    QWORD PTR [rsp+0xe8],rax
  204bd4:	00 
  204bd5:	8a 84 24 f7 00 00 00 	mov    al,BYTE PTR [rsp+0xf7]
  204bdc:	0c 80                	or     al,0x80
  204bde:	48 8b 8c 24 e8 00 00 	mov    rcx,QWORD PTR [rsp+0xe8]
  204be5:	00 
  204be6:	88 01                	mov    BYTE PTR [rcx],al
  204be8:	48 c7 84 24 40 01 00 	mov    QWORD PTR [rsp+0x140],0x2
  204bef:	00 02 00 00 00 
  204bf4:	e9 5c 04 00 00       	jmp    205055 <_ZN4core4char7methods22_$LT$impl$u20$char$GT$11encode_utf817hefd80bfc47950262E+0x655>
  204bf9:	c6 84 24 4f 01 00 00 	mov    BYTE PTR [rsp+0x14f],0x1
  204c00:	01 
  204c01:	eb 29                	jmp    204c2c <_ZN4core4char7methods22_$LT$impl$u20$char$GT$11encode_utf817hefd80bfc47950262E+0x22c>
  204c03:	c6 84 24 4f 01 00 00 	mov    BYTE PTR [rsp+0x14f],0x0
  204c0a:	00 
  204c0b:	eb 1f                	jmp    204c2c <_ZN4core4char7methods22_$LT$impl$u20$char$GT$11encode_utf817hefd80bfc47950262E+0x22c>
  204c0d:	48 8b bc 24 28 01 00 	mov    rdi,QWORD PTR [rsp+0x128]
  204c14:	00 
  204c15:	48 8b b4 24 30 01 00 	mov    rsi,QWORD PTR [rsp+0x130]
  204c1c:	00 
  204c1d:	e8 ce 5b 00 00       	call   20a7f0 <_ZN4core5slice29_$LT$impl$u20$$u5b$T$u5d$$GT$3len17h48a35758d0cbd2adE>
  204c22:	48 89 84 24 e0 00 00 	mov    QWORD PTR [rsp+0xe0],rax
  204c29:	00 
  204c2a:	eb 0c                	jmp    204c38 <_ZN4core4char7methods22_$LT$impl$u20$char$GT$11encode_utf817hefd80bfc47950262E+0x238>
  204c2c:	f6 84 24 4f 01 00 00 	test   BYTE PTR [rsp+0x14f],0x1
  204c33:	01 
  204c34:	75 12                	jne    204c48 <_ZN4core4char7methods22_$LT$impl$u20$char$GT$11encode_utf817hefd80bfc47950262E+0x248>
  204c36:	eb 49                	jmp    204c81 <_ZN4core4char7methods22_$LT$impl$u20$char$GT$11encode_utf817hefd80bfc47950262E+0x281>
  204c38:	48 8b 84 24 e0 00 00 	mov    rax,QWORD PTR [rsp+0xe0]
  204c3f:	00 
  204c40:	48 83 f8 03          	cmp    rax,0x3
  204c44:	73 b3                	jae    204bf9 <_ZN4core4char7methods22_$LT$impl$u20$char$GT$11encode_utf817hefd80bfc47950262E+0x1f9>
  204c46:	eb bb                	jmp    204c03 <_ZN4core4char7methods22_$LT$impl$u20$char$GT$11encode_utf817hefd80bfc47950262E+0x203>
  204c48:	31 c0                	xor    eax,eax
  204c4a:	89 c2                	mov    edx,eax
  204c4c:	8b 84 24 3c 01 00 00 	mov    eax,DWORD PTR [rsp+0x13c]
  204c53:	c1 e8 0c             	shr    eax,0xc
  204c56:	83 e0 0f             	and    eax,0xf
  204c59:	88 c1                	mov    cl,al
  204c5b:	48 8b bc 24 28 01 00 	mov    rdi,QWORD PTR [rsp+0x128]
  204c62:	00 
  204c63:	48 8b b4 24 30 01 00 	mov    rsi,QWORD PTR [rsp+0x130]
  204c6a:	00 
  204c6b:	88 8c 24 df 00 00 00 	mov    BYTE PTR [rsp+0xdf],cl
  204c72:	e8 e9 0d 00 00       	call   205a60 <_ZN4core5slice29_$LT$impl$u20$$u5b$T$u5d$$GT$17get_unchecked_mut17hea9c4740c7530fa5E>
  204c77:	48 89 84 24 d0 00 00 	mov    QWORD PTR [rsp+0xd0],rax
  204c7e:	00 
  204c7f:	eb 22                	jmp    204ca3 <_ZN4core4char7methods22_$LT$impl$u20$char$GT$11encode_utf817hefd80bfc47950262E+0x2a3>
  204c81:	48 8b bc 24 28 01 00 	mov    rdi,QWORD PTR [rsp+0x128]
  204c88:	00 
  204c89:	48 8b b4 24 30 01 00 	mov    rsi,QWORD PTR [rsp+0x130]
  204c90:	00 
  204c91:	e8 5a 5b 00 00       	call   20a7f0 <_ZN4core5slice29_$LT$impl$u20$$u5b$T$u5d$$GT$3len17h48a35758d0cbd2adE>
  204c96:	48 89 84 24 c8 00 00 	mov    QWORD PTR [rsp+0xc8],rax
  204c9d:	00 
  204c9e:	e9 bd 00 00 00       	jmp    204d60 <_ZN4core4char7methods22_$LT$impl$u20$char$GT$11encode_utf817hefd80bfc47950262E+0x360>
  204ca3:	b8 01 00 00 00       	mov    eax,0x1
  204ca8:	89 c2                	mov    edx,eax
  204caa:	8a 8c 24 df 00 00 00 	mov    cl,BYTE PTR [rsp+0xdf]
  204cb1:	80 c9 e0             	or     cl,0xe0
  204cb4:	48 8b b4 24 d0 00 00 	mov    rsi,QWORD PTR [rsp+0xd0]
  204cbb:	00 
  204cbc:	88 0e                	mov    BYTE PTR [rsi],cl
  204cbe:	8b 84 24 3c 01 00 00 	mov    eax,DWORD PTR [rsp+0x13c]
  204cc5:	c1 e8 06             	shr    eax,0x6
  204cc8:	83 e0 3f             	and    eax,0x3f
  204ccb:	88 c1                	mov    cl,al
  204ccd:	48 8b bc 24 28 01 00 	mov    rdi,QWORD PTR [rsp+0x128]
  204cd4:	00 
  204cd5:	48 8b b4 24 30 01 00 	mov    rsi,QWORD PTR [rsp+0x130]
  204cdc:	00 
  204cdd:	88 8c 24 c7 00 00 00 	mov    BYTE PTR [rsp+0xc7],cl
  204ce4:	e8 77 0d 00 00       	call   205a60 <_ZN4core5slice29_$LT$impl$u20$$u5b$T$u5d$$GT$17get_unchecked_mut17hea9c4740c7530fa5E>
  204ce9:	48 89 84 24 b8 00 00 	mov    QWORD PTR [rsp+0xb8],rax
  204cf0:	00 
  204cf1:	b8 02 00 00 00       	mov    eax,0x2
  204cf6:	89 c2                	mov    edx,eax
  204cf8:	8a 8c 24 c7 00 00 00 	mov    cl,BYTE PTR [rsp+0xc7]
  204cff:	80 c9 80             	or     cl,0x80
  204d02:	48 8b b4 24 b8 00 00 	mov    rsi,QWORD PTR [rsp+0xb8]
  204d09:	00 
  204d0a:	88 0e                	mov    BYTE PTR [rsi],cl
  204d0c:	8b 84 24 3c 01 00 00 	mov    eax,DWORD PTR [rsp+0x13c]
  204d13:	83 e0 3f             	and    eax,0x3f
  204d16:	88 c1                	mov    cl,al
  204d18:	48 8b bc 24 28 01 00 	mov    rdi,QWORD PTR [rsp+0x128]
  204d1f:	00 
  204d20:	48 8b b4 24 30 01 00 	mov    rsi,QWORD PTR [rsp+0x130]
  204d27:	00 
  204d28:	88 8c 24 b7 00 00 00 	mov    BYTE PTR [rsp+0xb7],cl
  204d2f:	e8 2c 0d 00 00       	call   205a60 <_ZN4core5slice29_$LT$impl$u20$$u5b$T$u5d$$GT$17get_unchecked_mut17hea9c4740c7530fa5E>
  204d34:	48 89 84 24 a8 00 00 	mov    QWORD PTR [rsp+0xa8],rax
  204d3b:	00 
  204d3c:	8a 84 24 b7 00 00 00 	mov    al,BYTE PTR [rsp+0xb7]
  204d43:	0c 80                	or     al,0x80
  204d45:	48 8b 8c 24 a8 00 00 	mov    rcx,QWORD PTR [rsp+0xa8]
  204d4c:	00 
  204d4d:	88 01                	mov    BYTE PTR [rcx],al
  204d4f:	48 c7 84 24 40 01 00 	mov    QWORD PTR [rsp+0x140],0x3
  204d56:	00 03 00 00 00 
  204d5b:	e9 f3 02 00 00       	jmp    205053 <_ZN4core4char7methods22_$LT$impl$u20$char$GT$11encode_utf817hefd80bfc47950262E+0x653>
  204d60:	48 8b 84 24 c8 00 00 	mov    rax,QWORD PTR [rsp+0xc8]
  204d67:	00 
  204d68:	48 83 f8 04          	cmp    rax,0x4
  204d6c:	72 39                	jb     204da7 <_ZN4core4char7methods22_$LT$impl$u20$char$GT$11encode_utf817hefd80bfc47950262E+0x3a7>
  204d6e:	31 c0                	xor    eax,eax
  204d70:	89 c2                	mov    edx,eax
  204d72:	8b 84 24 3c 01 00 00 	mov    eax,DWORD PTR [rsp+0x13c]
  204d79:	c1 e8 12             	shr    eax,0x12
  204d7c:	83 e0 07             	and    eax,0x7
  204d7f:	88 c1                	mov    cl,al
  204d81:	48 8b bc 24 28 01 00 	mov    rdi,QWORD PTR [rsp+0x128]
  204d88:	00 
  204d89:	48 8b b4 24 30 01 00 	mov    rsi,QWORD PTR [rsp+0x130]
  204d90:	00 
  204d91:	88 8c 24 a7 00 00 00 	mov    BYTE PTR [rsp+0xa7],cl
  204d98:	e8 c3 0c 00 00       	call   205a60 <_ZN4core5slice29_$LT$impl$u20$$u5b$T$u5d$$GT$17get_unchecked_mut17hea9c4740c7530fa5E>
  204d9d:	48 89 84 24 98 00 00 	mov    QWORD PTR [rsp+0x98],rax
  204da4:	00 
  204da5:	eb 18                	jmp    204dbf <_ZN4core4char7methods22_$LT$impl$u20$char$GT$11encode_utf817hefd80bfc47950262E+0x3bf>
  204da7:	8b bc 24 3c 01 00 00 	mov    edi,DWORD PTR [rsp+0x13c]
  204dae:	e8 4d e2 ff ff       	call   203000 <_ZN4core4char7convert18from_u32_unchecked17h7a7bb15360a51065E>
  204db3:	89 84 24 94 00 00 00 	mov    DWORD PTR [rsp+0x94],eax
  204dba:	e9 f9 00 00 00       	jmp    204eb8 <_ZN4core4char7methods22_$LT$impl$u20$char$GT$11encode_utf817hefd80bfc47950262E+0x4b8>
  204dbf:	b8 01 00 00 00       	mov    eax,0x1
  204dc4:	89 c2                	mov    edx,eax
  204dc6:	8a 8c 24 a7 00 00 00 	mov    cl,BYTE PTR [rsp+0xa7]
  204dcd:	80 c9 f0             	or     cl,0xf0
  204dd0:	48 8b b4 24 98 00 00 	mov    rsi,QWORD PTR [rsp+0x98]
  204dd7:	00 
  204dd8:	88 0e                	mov    BYTE PTR [rsi],cl
  204dda:	8b 84 24 3c 01 00 00 	mov    eax,DWORD PTR [rsp+0x13c]
  204de1:	c1 e8 0c             	shr    eax,0xc
  204de4:	83 e0 3f             	and    eax,0x3f
  204de7:	88 c1                	mov    cl,al
  204de9:	48 8b bc 24 28 01 00 	mov    rdi,QWORD PTR [rsp+0x128]
  204df0:	00 
  204df1:	48 8b b4 24 30 01 00 	mov    rsi,QWORD PTR [rsp+0x130]
  204df8:	00 
  204df9:	88 8c 24 93 00 00 00 	mov    BYTE PTR [rsp+0x93],cl
  204e00:	e8 5b 0c 00 00       	call   205a60 <_ZN4core5slice29_$LT$impl$u20$$u5b$T$u5d$$GT$17get_unchecked_mut17hea9c4740c7530fa5E>
  204e05:	48 89 84 24 88 00 00 	mov    QWORD PTR [rsp+0x88],rax
  204e0c:	00 
  204e0d:	b8 02 00 00 00       	mov    eax,0x2
  204e12:	89 c2                	mov    edx,eax
  204e14:	8a 8c 24 93 00 00 00 	mov    cl,BYTE PTR [rsp+0x93]
  204e1b:	80 c9 80             	or     cl,0x80
  204e1e:	48 8b b4 24 88 00 00 	mov    rsi,QWORD PTR [rsp+0x88]
  204e25:	00 
  204e26:	88 0e                	mov    BYTE PTR [rsi],cl
  204e28:	8b 84 24 3c 01 00 00 	mov    eax,DWORD PTR [rsp+0x13c]
  204e2f:	c1 e8 06             	shr    eax,0x6
  204e32:	83 e0 3f             	and    eax,0x3f
  204e35:	88 c1                	mov    cl,al
  204e37:	48 8b bc 24 28 01 00 	mov    rdi,QWORD PTR [rsp+0x128]
  204e3e:	00 
  204e3f:	48 8b b4 24 30 01 00 	mov    rsi,QWORD PTR [rsp+0x130]
  204e46:	00 
  204e47:	88 8c 24 87 00 00 00 	mov    BYTE PTR [rsp+0x87],cl
  204e4e:	e8 0d 0c 00 00       	call   205a60 <_ZN4core5slice29_$LT$impl$u20$$u5b$T$u5d$$GT$17get_unchecked_mut17hea9c4740c7530fa5E>
  204e53:	48 89 44 24 78       	mov    QWORD PTR [rsp+0x78],rax
  204e58:	b8 03 00 00 00       	mov    eax,0x3
  204e5d:	89 c2                	mov    edx,eax
  204e5f:	8a 8c 24 87 00 00 00 	mov    cl,BYTE PTR [rsp+0x87]
  204e66:	80 c9 80             	or     cl,0x80
  204e69:	48 8b 74 24 78       	mov    rsi,QWORD PTR [rsp+0x78]
  204e6e:	88 0e                	mov    BYTE PTR [rsi],cl
  204e70:	8b 84 24 3c 01 00 00 	mov    eax,DWORD PTR [rsp+0x13c]
  204e77:	83 e0 3f             	and    eax,0x3f
  204e7a:	88 c1                	mov    cl,al
  204e7c:	48 8b bc 24 28 01 00 	mov    rdi,QWORD PTR [rsp+0x128]
  204e83:	00 
  204e84:	48 8b b4 24 30 01 00 	mov    rsi,QWORD PTR [rsp+0x130]
  204e8b:	00 
  204e8c:	88 4c 24 77          	mov    BYTE PTR [rsp+0x77],cl
  204e90:	e8 cb 0b 00 00       	call   205a60 <_ZN4core5slice29_$LT$impl$u20$$u5b$T$u5d$$GT$17get_unchecked_mut17hea9c4740c7530fa5E>
  204e95:	48 89 44 24 68       	mov    QWORD PTR [rsp+0x68],rax
  204e9a:	8a 44 24 77          	mov    al,BYTE PTR [rsp+0x77]
  204e9e:	0c 80                	or     al,0x80
  204ea0:	48 8b 4c 24 68       	mov    rcx,QWORD PTR [rsp+0x68]
  204ea5:	88 01                	mov    BYTE PTR [rcx],al
  204ea7:	48 c7 84 24 40 01 00 	mov    QWORD PTR [rsp+0x140],0x4
  204eae:	00 04 00 00 00 
  204eb3:	e9 9b 01 00 00       	jmp    205053 <_ZN4core4char7methods22_$LT$impl$u20$char$GT$11encode_utf817hefd80bfc47950262E+0x653>
  204eb8:	8b bc 24 94 00 00 00 	mov    edi,DWORD PTR [rsp+0x94]
  204ebf:	e8 fc 01 00 00       	call   2050c0 <_ZN4core4char7methods22_$LT$impl$u20$char$GT$8len_utf817h4eef33418ac537e7E>
  204ec4:	48 89 84 24 c8 01 00 	mov    QWORD PTR [rsp+0x1c8],rax
  204ecb:	00 
  204ecc:	48 8b bc 24 28 01 00 	mov    rdi,QWORD PTR [rsp+0x128]
  204ed3:	00 
  204ed4:	48 8b b4 24 30 01 00 	mov    rsi,QWORD PTR [rsp+0x130]
  204edb:	00 
  204edc:	e8 0f 59 00 00       	call   20a7f0 <_ZN4core5slice29_$LT$impl$u20$$u5b$T$u5d$$GT$3len17h48a35758d0cbd2adE>
  204ee1:	48 89 84 24 d0 01 00 	mov    QWORD PTR [rsp+0x1d0],rax
  204ee8:	00 
  204ee9:	48 8b 35 a0 3c 01 00 	mov    rsi,QWORD PTR [rip+0x13ca0]        # 218b90 <anon.1bff91ff831ef35e8f88f701b74121b0.54.llvm.16174415053401254949+0x678>
  204ef0:	48 8d 84 24 c8 01 00 	lea    rax,[rsp+0x1c8]
  204ef7:	00 
  204ef8:	48 89 84 24 b0 01 00 	mov    QWORD PTR [rsp+0x1b0],rax
  204eff:	00 
  204f00:	48 8d 84 24 3c 01 00 	lea    rax,[rsp+0x13c]
  204f07:	00 
  204f08:	48 89 84 24 b8 01 00 	mov    QWORD PTR [rsp+0x1b8],rax
  204f0f:	00 
  204f10:	48 8d 84 24 d0 01 00 	lea    rax,[rsp+0x1d0]
  204f17:	00 
  204f18:	48 89 84 24 c0 01 00 	mov    QWORD PTR [rsp+0x1c0],rax
  204f1f:	00 
  204f20:	48 8b 84 24 b0 01 00 	mov    rax,QWORD PTR [rsp+0x1b0]
  204f27:	00 
  204f28:	48 89 84 24 d8 01 00 	mov    QWORD PTR [rsp+0x1d8],rax
  204f2f:	00 
  204f30:	48 8b 84 24 b8 01 00 	mov    rax,QWORD PTR [rsp+0x1b8]
  204f37:	00 
  204f38:	48 89 84 24 e0 01 00 	mov    QWORD PTR [rsp+0x1e0],rax
  204f3f:	00 
  204f40:	48 8b 84 24 c0 01 00 	mov    rax,QWORD PTR [rsp+0x1c0]
  204f47:	00 
  204f48:	48 89 84 24 e8 01 00 	mov    QWORD PTR [rsp+0x1e8],rax
  204f4f:	00 
  204f50:	48 8b bc 24 d8 01 00 	mov    rdi,QWORD PTR [rsp+0x1d8]
  204f57:	00 
  204f58:	e8 13 69 00 00       	call   20b870 <_ZN4core3fmt10ArgumentV13new17hc8c938a553f6db6cE>
  204f5d:	48 89 44 24 60       	mov    QWORD PTR [rsp+0x60],rax
  204f62:	48 89 54 24 58       	mov    QWORD PTR [rsp+0x58],rdx
  204f67:	48 8b 35 2a 3c 01 00 	mov    rsi,QWORD PTR [rip+0x13c2a]        # 218b98 <anon.1bff91ff831ef35e8f88f701b74121b0.54.llvm.16174415053401254949+0x680>
  204f6e:	48 8b bc 24 e0 01 00 	mov    rdi,QWORD PTR [rsp+0x1e0]
  204f75:	00 
  204f76:	e8 15 b0 00 00       	call   20ff90 <_ZN4core3fmt10ArgumentV13new17h0085d03529bb90b1E>
  204f7b:	48 89 44 24 50       	mov    QWORD PTR [rsp+0x50],rax
  204f80:	48 89 54 24 48       	mov    QWORD PTR [rsp+0x48],rdx
  204f85:	48 8b 35 04 3c 01 00 	mov    rsi,QWORD PTR [rip+0x13c04]        # 218b90 <anon.1bff91ff831ef35e8f88f701b74121b0.54.llvm.16174415053401254949+0x678>
  204f8c:	48 8b bc 24 e8 01 00 	mov    rdi,QWORD PTR [rsp+0x1e8]
  204f93:	00 
  204f94:	e8 d7 68 00 00       	call   20b870 <_ZN4core3fmt10ArgumentV13new17hc8c938a553f6db6cE>
  204f99:	48 89 44 24 40       	mov    QWORD PTR [rsp+0x40],rax
  204f9e:	48 89 54 24 38       	mov    QWORD PTR [rsp+0x38],rdx
  204fa3:	48 8d 05 86 23 01 00 	lea    rax,[rip+0x12386]        # 217330 <_ZN11rust_kernel3vga6writer6WRITER17h25e0541f3f3878f2E+0x1300>
  204faa:	b9 03 00 00 00       	mov    ecx,0x3
  204faf:	89 ca                	mov    edx,ecx
  204fb1:	48 8d 35 a8 b3 ff ff 	lea    rsi,[rip+0xffffffffffffb3a8]        # 200360 <str.3+0x60>
  204fb8:	48 8b 7c 24 60       	mov    rdi,QWORD PTR [rsp+0x60]
  204fbd:	48 89 bc 24 80 01 00 	mov    QWORD PTR [rsp+0x180],rdi
  204fc4:	00 
  204fc5:	4c 8b 44 24 58       	mov    r8,QWORD PTR [rsp+0x58]
  204fca:	4c 89 84 24 88 01 00 	mov    QWORD PTR [rsp+0x188],r8
  204fd1:	00 
  204fd2:	4c 8b 4c 24 50       	mov    r9,QWORD PTR [rsp+0x50]
  204fd7:	4c 89 8c 24 90 01 00 	mov    QWORD PTR [rsp+0x190],r9
  204fde:	00 
  204fdf:	4c 8b 54 24 48       	mov    r10,QWORD PTR [rsp+0x48]
  204fe4:	4c 89 94 24 98 01 00 	mov    QWORD PTR [rsp+0x198],r10
  204feb:	00 
  204fec:	4c 8b 5c 24 40       	mov    r11,QWORD PTR [rsp+0x40]
  204ff1:	4c 89 9c 24 a0 01 00 	mov    QWORD PTR [rsp+0x1a0],r11
  204ff8:	00 
  204ff9:	48 8b 5c 24 38       	mov    rbx,QWORD PTR [rsp+0x38]
  204ffe:	48 89 9c 24 a8 01 00 	mov    QWORD PTR [rsp+0x1a8],rbx
  205005:	00 
  205006:	4c 8d b4 24 80 01 00 	lea    r14,[rsp+0x180]
  20500d:	00 
  20500e:	48 8d bc 24 50 01 00 	lea    rdi,[rsp+0x150]
  205015:	00 
  205016:	48 89 74 24 30       	mov    QWORD PTR [rsp+0x30],rsi
  20501b:	48 89 c6             	mov    rsi,rax
  20501e:	48 89 54 24 28       	mov    QWORD PTR [rsp+0x28],rdx
  205023:	4c 89 f1             	mov    rcx,r14
  205026:	4c 8b 44 24 28       	mov    r8,QWORD PTR [rsp+0x28]
  20502b:	4c 8b 4c 24 30       	mov    r9,QWORD PTR [rsp+0x30]
  205030:	48 c7 04 24 03 00 00 	mov    QWORD PTR [rsp],0x3
  205037:	00 
  205038:	e8 a3 2e 00 00       	call   207ee0 <_ZN4core3fmt9Arguments16new_v1_formatted17h6b774fad859325d4E>
  20503d:	48 8d 35 1c 23 01 00 	lea    rsi,[rip+0x1231c]        # 217360 <_ZN11rust_kernel3vga6writer6WRITER17h25e0541f3f3878f2E+0x1330>
  205044:	48 8d bc 24 50 01 00 	lea    rdi,[rsp+0x150]
  20504b:	00 
  20504c:	e8 7f f1 00 00       	call   2141d0 <_ZN4core9panicking9panic_fmt17h4f230144173159edE>
  205051:	0f 0b                	ud2    
  205053:	eb 00                	jmp    205055 <_ZN4core4char7methods22_$LT$impl$u20$char$GT$11encode_utf817hefd80bfc47950262E+0x655>
  205055:	eb 00                	jmp    205057 <_ZN4core4char7methods22_$LT$impl$u20$char$GT$11encode_utf817hefd80bfc47950262E+0x657>
  205057:	48 8b bc 24 28 01 00 	mov    rdi,QWORD PTR [rsp+0x128]
  20505e:	00 
  20505f:	48 8b b4 24 30 01 00 	mov    rsi,QWORD PTR [rsp+0x130]
  205066:	00 
  205067:	48 8b 84 24 40 01 00 	mov    rax,QWORD PTR [rsp+0x140]
  20506e:	00 
  20506f:	48 89 84 24 f0 01 00 	mov    QWORD PTR [rsp+0x1f0],rax
  205076:	00 
  205077:	48 8b 94 24 f0 01 00 	mov    rdx,QWORD PTR [rsp+0x1f0]
  20507e:	00 
  20507f:	e8 9c 09 00 00       	call   205a20 <_ZN4core5slice29_$LT$impl$u20$$u5b$T$u5d$$GT$17get_unchecked_mut17hc3d6c2e3768f7d2cE>
  205084:	48 89 44 24 20       	mov    QWORD PTR [rsp+0x20],rax
  205089:	48 89 54 24 18       	mov    QWORD PTR [rsp+0x18],rdx
  20508e:	48 8b 7c 24 20       	mov    rdi,QWORD PTR [rsp+0x20]
  205093:	48 8b 74 24 18       	mov    rsi,QWORD PTR [rsp+0x18]
  205098:	e8 63 38 00 00       	call   208900 <_ZN4core3str23from_utf8_unchecked_mut17h4b1a099ae4902955E>
  20509d:	48 89 44 24 10       	mov    QWORD PTR [rsp+0x10],rax
  2050a2:	48 89 54 24 08       	mov    QWORD PTR [rsp+0x8],rdx
  2050a7:	48 8b 44 24 10       	mov    rax,QWORD PTR [rsp+0x10]
  2050ac:	48 8b 54 24 08       	mov    rdx,QWORD PTR [rsp+0x8]
  2050b1:	48 81 c4 f8 01 00 00 	add    rsp,0x1f8
  2050b8:	5b                   	pop    rbx
  2050b9:	41 5e                	pop    r14
  2050bb:	c3                   	ret    
  2050bc:	cc                   	int3   
  2050bd:	cc                   	int3   
  2050be:	cc                   	int3   
  2050bf:	cc                   	int3   

00000000002050c0 <_ZN4core4char7methods22_$LT$impl$u20$char$GT$8len_utf817h4eef33418ac537e7E>:
  2050c0:	48 83 ec 18          	sub    rsp,0x18
  2050c4:	89 7c 24 04          	mov    DWORD PTR [rsp+0x4],edi
  2050c8:	8b 7c 24 04          	mov    edi,DWORD PTR [rsp+0x4]
  2050cc:	89 7c 24 14          	mov    DWORD PTR [rsp+0x14],edi
  2050d0:	81 7c 24 14 80 00 00 	cmp    DWORD PTR [rsp+0x14],0x80
  2050d7:	00 
  2050d8:	73 0b                	jae    2050e5 <_ZN4core4char7methods22_$LT$impl$u20$char$GT$8len_utf817h4eef33418ac537e7E+0x25>
  2050da:	48 c7 44 24 08 01 00 	mov    QWORD PTR [rsp+0x8],0x1
  2050e1:	00 00 
  2050e3:	eb 37                	jmp    20511c <_ZN4core4char7methods22_$LT$impl$u20$char$GT$8len_utf817h4eef33418ac537e7E+0x5c>
  2050e5:	81 7c 24 14 00 08 00 	cmp    DWORD PTR [rsp+0x14],0x800
  2050ec:	00 
  2050ed:	73 0b                	jae    2050fa <_ZN4core4char7methods22_$LT$impl$u20$char$GT$8len_utf817h4eef33418ac537e7E+0x3a>
  2050ef:	48 c7 44 24 08 02 00 	mov    QWORD PTR [rsp+0x8],0x2
  2050f6:	00 00 
  2050f8:	eb 20                	jmp    20511a <_ZN4core4char7methods22_$LT$impl$u20$char$GT$8len_utf817h4eef33418ac537e7E+0x5a>
  2050fa:	81 7c 24 14 00 00 01 	cmp    DWORD PTR [rsp+0x14],0x10000
  205101:	00 
  205102:	73 0b                	jae    20510f <_ZN4core4char7methods22_$LT$impl$u20$char$GT$8len_utf817h4eef33418ac537e7E+0x4f>
  205104:	48 c7 44 24 08 03 00 	mov    QWORD PTR [rsp+0x8],0x3
  20510b:	00 00 
  20510d:	eb 09                	jmp    205118 <_ZN4core4char7methods22_$LT$impl$u20$char$GT$8len_utf817h4eef33418ac537e7E+0x58>
  20510f:	48 c7 44 24 08 04 00 	mov    QWORD PTR [rsp+0x8],0x4
  205116:	00 00 
  205118:	eb 00                	jmp    20511a <_ZN4core4char7methods22_$LT$impl$u20$char$GT$8len_utf817h4eef33418ac537e7E+0x5a>
  20511a:	eb 00                	jmp    20511c <_ZN4core4char7methods22_$LT$impl$u20$char$GT$8len_utf817h4eef33418ac537e7E+0x5c>
  20511c:	48 8b 44 24 08       	mov    rax,QWORD PTR [rsp+0x8]
  205121:	48 83 c4 18          	add    rsp,0x18
  205125:	c3                   	ret    
  205126:	cc                   	int3   
  205127:	cc                   	int3   
  205128:	cc                   	int3   
  205129:	cc                   	int3   
  20512a:	cc                   	int3   
  20512b:	cc                   	int3   
  20512c:	cc                   	int3   
  20512d:	cc                   	int3   
  20512e:	cc                   	int3   
  20512f:	cc                   	int3   

0000000000205130 <_ZN4core3ptr19swap_nonoverlapping17h6e57acc588d5234dE>:
  205130:	48 83 ec 38          	sub    rsp,0x38
  205134:	48 89 7c 24 08       	mov    QWORD PTR [rsp+0x8],rdi
  205139:	48 89 74 24 10       	mov    QWORD PTR [rsp+0x10],rsi
  20513e:	48 89 54 24 18       	mov    QWORD PTR [rsp+0x18],rdx
  205143:	48 8b 54 24 08       	mov    rdx,QWORD PTR [rsp+0x8]
  205148:	48 89 54 24 20       	mov    QWORD PTR [rsp+0x20],rdx
  20514d:	48 8b 54 24 10       	mov    rdx,QWORD PTR [rsp+0x10]
  205152:	48 89 54 24 28       	mov    QWORD PTR [rsp+0x28],rdx
  205157:	e8 b4 a5 00 00       	call   20f710 <_ZN4core3mem7size_of17hae62eadc2e6cab41E>
  20515c:	48 89 04 24          	mov    QWORD PTR [rsp],rax
  205160:	48 8b 04 24          	mov    rax,QWORD PTR [rsp]
  205164:	48 0f af 44 24 18    	imul   rax,QWORD PTR [rsp+0x18]
  20516a:	48 89 44 24 30       	mov    QWORD PTR [rsp+0x30],rax
  20516f:	48 8b 7c 24 20       	mov    rdi,QWORD PTR [rsp+0x20]
  205174:	48 8b 74 24 28       	mov    rsi,QWORD PTR [rsp+0x28]
  205179:	48 8b 54 24 30       	mov    rdx,QWORD PTR [rsp+0x30]
  20517e:	e8 cd 42 00 00       	call   209450 <_ZN4core3ptr25swap_nonoverlapping_bytes17h07d8a2844ca1d6efE>
  205183:	48 83 c4 38          	add    rsp,0x38
  205187:	c3                   	ret    
  205188:	cc                   	int3   
  205189:	cc                   	int3   
  20518a:	cc                   	int3   
  20518b:	cc                   	int3   
  20518c:	cc                   	int3   
  20518d:	cc                   	int3   
  20518e:	cc                   	int3   
  20518f:	cc                   	int3   

0000000000205190 <_ZN4core3ptr23swap_nonoverlapping_one17h4098348b8a972fd0E>:
  205190:	48 83 ec 28          	sub    rsp,0x28
  205194:	48 89 7c 24 10       	mov    QWORD PTR [rsp+0x10],rdi
  205199:	48 89 74 24 18       	mov    QWORD PTR [rsp+0x18],rsi
  20519e:	e8 6d a5 00 00       	call   20f710 <_ZN4core3mem7size_of17hae62eadc2e6cab41E>
  2051a3:	48 89 44 24 08       	mov    QWORD PTR [rsp+0x8],rax
  2051a8:	48 8b 44 24 08       	mov    rax,QWORD PTR [rsp+0x8]
  2051ad:	48 83 f8 20          	cmp    rax,0x20
  2051b1:	73 10                	jae    2051c3 <_ZN4core3ptr23swap_nonoverlapping_one17h4098348b8a972fd0E+0x33>
  2051b3:	48 8b 7c 24 10       	mov    rdi,QWORD PTR [rsp+0x10]
  2051b8:	e8 f3 00 00 00       	call   2052b0 <_ZN4core3ptr4read17he9418a5738415567E>
  2051bd:	88 44 24 27          	mov    BYTE PTR [rsp+0x27],al
  2051c1:	eb 18                	jmp    2051db <_ZN4core3ptr23swap_nonoverlapping_one17h4098348b8a972fd0E+0x4b>
  2051c3:	b8 01 00 00 00       	mov    eax,0x1
  2051c8:	89 c2                	mov    edx,eax
  2051ca:	48 8b 7c 24 10       	mov    rdi,QWORD PTR [rsp+0x10]
  2051cf:	48 8b 74 24 18       	mov    rsi,QWORD PTR [rsp+0x18]
  2051d4:	e8 57 ff ff ff       	call   205130 <_ZN4core3ptr19swap_nonoverlapping17h6e57acc588d5234dE>
  2051d9:	eb 1f                	jmp    2051fa <_ZN4core3ptr23swap_nonoverlapping_one17h4098348b8a972fd0E+0x6a>
  2051db:	48 8b 44 24 18       	mov    rax,QWORD PTR [rsp+0x18]
  2051e0:	48 8b 4c 24 10       	mov    rcx,QWORD PTR [rsp+0x10]
  2051e5:	8a 10                	mov    dl,BYTE PTR [rax]
  2051e7:	88 11                	mov    BYTE PTR [rcx],dl
  2051e9:	48 8b 7c 24 18       	mov    rdi,QWORD PTR [rsp+0x18]
  2051ee:	0f b6 74 24 27       	movzx  esi,BYTE PTR [rsp+0x27]
  2051f3:	e8 e8 00 00 00       	call   2052e0 <_ZN4core3ptr5write17h4037435d629637e5E>
  2051f8:	eb 02                	jmp    2051fc <_ZN4core3ptr23swap_nonoverlapping_one17h4098348b8a972fd0E+0x6c>
  2051fa:	eb 00                	jmp    2051fc <_ZN4core3ptr23swap_nonoverlapping_one17h4098348b8a972fd0E+0x6c>
  2051fc:	48 83 c4 28          	add    rsp,0x28
  205200:	c3                   	ret    
  205201:	cc                   	int3   
  205202:	cc                   	int3   
  205203:	cc                   	int3   
  205204:	cc                   	int3   
  205205:	cc                   	int3   
  205206:	cc                   	int3   
  205207:	cc                   	int3   
  205208:	cc                   	int3   
  205209:	cc                   	int3   
  20520a:	cc                   	int3   
  20520b:	cc                   	int3   
  20520c:	cc                   	int3   
  20520d:	cc                   	int3   
  20520e:	cc                   	int3   
  20520f:	cc                   	int3   

0000000000205210 <_ZN4core3ptr33_$LT$impl$u20$$BP$const$u20$T$GT$3add17h98b8131836c7103cE>:
  205210:	48 83 ec 18          	sub    rsp,0x18
  205214:	48 89 7c 24 08       	mov    QWORD PTR [rsp+0x8],rdi
  205219:	48 89 74 24 10       	mov    QWORD PTR [rsp+0x10],rsi
  20521e:	48 8b 7c 24 08       	mov    rdi,QWORD PTR [rsp+0x8]
  205223:	48 8b 74 24 10       	mov    rsi,QWORD PTR [rsp+0x10]
  205228:	e8 13 00 00 00       	call   205240 <_ZN4core3ptr33_$LT$impl$u20$$BP$const$u20$T$GT$6offset17hdb2c0103386ce910E>
  20522d:	48 89 04 24          	mov    QWORD PTR [rsp],rax
  205231:	48 8b 04 24          	mov    rax,QWORD PTR [rsp]
  205235:	48 83 c4 18          	add    rsp,0x18
  205239:	c3                   	ret    
  20523a:	cc                   	int3   
  20523b:	cc                   	int3   
  20523c:	cc                   	int3   
  20523d:	cc                   	int3   
  20523e:	cc                   	int3   
  20523f:	cc                   	int3   

0000000000205240 <_ZN4core3ptr33_$LT$impl$u20$$BP$const$u20$T$GT$6offset17hdb2c0103386ce910E>:
  205240:	48 83 ec 20          	sub    rsp,0x20
  205244:	48 89 7c 24 08       	mov    QWORD PTR [rsp+0x8],rdi
  205249:	48 89 74 24 10       	mov    QWORD PTR [rsp+0x10],rsi
  20524e:	48 8b 74 24 08       	mov    rsi,QWORD PTR [rsp+0x8]
  205253:	48 03 74 24 10       	add    rsi,QWORD PTR [rsp+0x10]
  205258:	48 89 74 24 18       	mov    QWORD PTR [rsp+0x18],rsi
  20525d:	48 8b 44 24 18       	mov    rax,QWORD PTR [rsp+0x18]
  205262:	48 89 04 24          	mov    QWORD PTR [rsp],rax
  205266:	48 8b 04 24          	mov    rax,QWORD PTR [rsp]
  20526a:	48 83 c4 20          	add    rsp,0x20
  20526e:	c3                   	ret    
  20526f:	cc                   	int3   

0000000000205270 <_ZN4core3ptr33_$LT$impl$u20$$BP$const$u20$T$GT$7is_null17h8209e73775f1e616E>:
  205270:	48 83 ec 18          	sub    rsp,0x18
  205274:	48 89 7c 24 10       	mov    QWORD PTR [rsp+0x10],rdi
  205279:	48 8b 7c 24 10       	mov    rdi,QWORD PTR [rsp+0x10]
  20527e:	48 89 7c 24 08       	mov    QWORD PTR [rsp+0x8],rdi
  205283:	e8 58 aa 00 00       	call   20fce0 <_ZN4core3ptr4null17hd6d5a492756a0697E>
  205288:	48 89 04 24          	mov    QWORD PTR [rsp],rax
  20528c:	48 8b 44 24 08       	mov    rax,QWORD PTR [rsp+0x8]
  205291:	48 8b 0c 24          	mov    rcx,QWORD PTR [rsp]
  205295:	48 39 c8             	cmp    rax,rcx
  205298:	0f 94 c2             	sete   dl
  20529b:	80 e2 01             	and    dl,0x1
  20529e:	0f b6 c2             	movzx  eax,dl
  2052a1:	48 83 c4 18          	add    rsp,0x18
  2052a5:	c3                   	ret    
  2052a6:	cc                   	int3   
  2052a7:	cc                   	int3   
  2052a8:	cc                   	int3   
  2052a9:	cc                   	int3   
  2052aa:	cc                   	int3   
  2052ab:	cc                   	int3   
  2052ac:	cc                   	int3   
  2052ad:	cc                   	int3   
  2052ae:	cc                   	int3   
  2052af:	cc                   	int3   

00000000002052b0 <_ZN4core3ptr4read17he9418a5738415567E>:
  2052b0:	48 83 ec 18          	sub    rsp,0x18
  2052b4:	48 89 7c 24 08       	mov    QWORD PTR [rsp+0x8],rdi
  2052b9:	e8 b2 39 00 00       	call   208c70 <_ZN4core3mem13uninitialized17hdfff6a75d1851717E>
  2052be:	88 44 24 17          	mov    BYTE PTR [rsp+0x17],al
  2052c2:	48 8b 44 24 08       	mov    rax,QWORD PTR [rsp+0x8]
  2052c7:	8a 08                	mov    cl,BYTE PTR [rax]
  2052c9:	88 4c 24 17          	mov    BYTE PTR [rsp+0x17],cl
  2052cd:	8a 44 24 17          	mov    al,BYTE PTR [rsp+0x17]
  2052d1:	48 83 c4 18          	add    rsp,0x18
  2052d5:	c3                   	ret    
  2052d6:	cc                   	int3   
  2052d7:	cc                   	int3   
  2052d8:	cc                   	int3   
  2052d9:	cc                   	int3   
  2052da:	cc                   	int3   
  2052db:	cc                   	int3   
  2052dc:	cc                   	int3   
  2052dd:	cc                   	int3   
  2052de:	cc                   	int3   
  2052df:	cc                   	int3   

00000000002052e0 <_ZN4core3ptr5write17h4037435d629637e5E>:
  2052e0:	48 83 ec 10          	sub    rsp,0x10
  2052e4:	40 88 f0             	mov    al,sil
  2052e7:	48 89 3c 24          	mov    QWORD PTR [rsp],rdi
  2052eb:	88 44 24 0f          	mov    BYTE PTR [rsp+0xf],al
  2052ef:	48 8b 3c 24          	mov    rdi,QWORD PTR [rsp]
  2052f3:	8a 44 24 0f          	mov    al,BYTE PTR [rsp+0xf]
  2052f7:	88 07                	mov    BYTE PTR [rdi],al
  2052f9:	48 83 c4 10          	add    rsp,0x10
  2052fd:	c3                   	ret    
  2052fe:	cc                   	int3   
  2052ff:	cc                   	int3   

0000000000205300 <_ZN11rust_kernel6memory15frame_allocator10FrameStack5empty17h5c446fa86e8dbe31E>:
  205300:	48 81 ec 28 08 00 00 	sub    rsp,0x828
  205307:	48 89 f8             	mov    rax,rdi
  20530a:	b9 00 08 00 00       	mov    ecx,0x800
  20530f:	89 ca                	mov    edx,ecx
  205311:	48 8d 74 24 28       	lea    rsi,[rsp+0x28]
  205316:	31 c9                	xor    ecx,ecx
  205318:	49 89 f0             	mov    r8,rsi
  20531b:	48 89 7c 24 20       	mov    QWORD PTR [rsp+0x20],rdi
  205320:	4c 89 c7             	mov    rdi,r8
  205323:	48 89 74 24 18       	mov    QWORD PTR [rsp+0x18],rsi
  205328:	89 ce                	mov    esi,ecx
  20532a:	48 89 54 24 10       	mov    QWORD PTR [rsp+0x10],rdx
  20532f:	48 89 44 24 08       	mov    QWORD PTR [rsp+0x8],rax
  205334:	e8 97 ef 00 00       	call   2142d0 <memset>
  205339:	48 8b 44 24 20       	mov    rax,QWORD PTR [rsp+0x20]
  20533e:	48 8b 54 24 18       	mov    rdx,QWORD PTR [rsp+0x18]
  205343:	48 89 c7             	mov    rdi,rax
  205346:	48 89 d6             	mov    rsi,rdx
  205349:	48 8b 54 24 10       	mov    rdx,QWORD PTR [rsp+0x10]
  20534e:	e8 4d ef 00 00       	call   2142a0 <memcpy>
  205353:	48 8b 44 24 20       	mov    rax,QWORD PTR [rsp+0x20]
  205358:	48 c7 80 00 08 00 00 	mov    QWORD PTR [rax+0x800],0x0
  20535f:	00 00 00 00 
  205363:	48 8b 44 24 08       	mov    rax,QWORD PTR [rsp+0x8]
  205368:	48 81 c4 28 08 00 00 	add    rsp,0x828
  20536f:	c3                   	ret    

0000000000205370 <_ZN11rust_kernel6memory15frame_allocator10FrameStack3pop17hf63dd48af0634964E>:
  205370:	48 83 ec 28          	sub    rsp,0x28
  205374:	48 89 7c 24 10       	mov    QWORD PTR [rsp+0x10],rdi
  205379:	48 8b 7c 24 10       	mov    rdi,QWORD PTR [rsp+0x10]
  20537e:	48 83 bf 00 08 00 00 	cmp    QWORD PTR [rdi+0x800],0x0
  205385:	00 
  205386:	76 1f                	jbe    2053a7 <_ZN11rust_kernel6memory15frame_allocator10FrameStack3pop17hf63dd48af0634964E+0x37>
  205388:	48 8b 44 24 10       	mov    rax,QWORD PTR [rsp+0x10]
  20538d:	48 8b 80 00 08 00 00 	mov    rax,QWORD PTR [rax+0x800]
  205394:	48 83 e8 01          	sub    rax,0x1
  205398:	0f 92 c1             	setb   cl
  20539b:	f6 c1 01             	test   cl,0x1
  20539e:	48 89 44 24 08       	mov    QWORD PTR [rsp+0x8],rax
  2053a3:	75 68                	jne    20540d <_ZN11rust_kernel6memory15frame_allocator10FrameStack3pop17hf63dd48af0634964E+0x9d>
  2053a5:	eb 0b                	jmp    2053b2 <_ZN11rust_kernel6memory15frame_allocator10FrameStack3pop17hf63dd48af0634964E+0x42>
  2053a7:	48 c7 44 24 18 00 00 	mov    QWORD PTR [rsp+0x18],0x0
  2053ae:	00 00 
  2053b0:	eb 4c                	jmp    2053fe <_ZN11rust_kernel6memory15frame_allocator10FrameStack3pop17hf63dd48af0634964E+0x8e>
  2053b2:	48 8b 44 24 10       	mov    rax,QWORD PTR [rsp+0x10]
  2053b7:	48 8b 4c 24 08       	mov    rcx,QWORD PTR [rsp+0x8]
  2053bc:	48 89 88 00 08 00 00 	mov    QWORD PTR [rax+0x800],rcx
  2053c3:	48 8b 44 24 10       	mov    rax,QWORD PTR [rsp+0x10]
  2053c8:	48 8b 80 00 08 00 00 	mov    rax,QWORD PTR [rax+0x800]
  2053cf:	48 3d 00 01 00 00    	cmp    rax,0x100
  2053d5:	0f 92 c2             	setb   dl
  2053d8:	f6 c2 01             	test   dl,0x1
  2053db:	48 89 04 24          	mov    QWORD PTR [rsp],rax
  2053df:	75 02                	jne    2053e3 <_ZN11rust_kernel6memory15frame_allocator10FrameStack3pop17hf63dd48af0634964E+0x73>
  2053e1:	eb 38                	jmp    20541b <_ZN11rust_kernel6memory15frame_allocator10FrameStack3pop17hf63dd48af0634964E+0xab>
  2053e3:	48 8b 44 24 10       	mov    rax,QWORD PTR [rsp+0x10]
  2053e8:	48 8b 0c 24          	mov    rcx,QWORD PTR [rsp]
  2053ec:	48 8b 04 c8          	mov    rax,QWORD PTR [rax+rcx*8]
  2053f0:	48 89 44 24 20       	mov    QWORD PTR [rsp+0x20],rax
  2053f5:	48 c7 44 24 18 01 00 	mov    QWORD PTR [rsp+0x18],0x1
  2053fc:	00 00 
  2053fe:	48 8b 44 24 18       	mov    rax,QWORD PTR [rsp+0x18]
  205403:	48 8b 54 24 20       	mov    rdx,QWORD PTR [rsp+0x20]
  205408:	48 83 c4 28          	add    rsp,0x28
  20540c:	c3                   	ret    
  20540d:	48 8d 3d 64 1f 01 00 	lea    rdi,[rip+0x11f64]        # 217378 <_ZN11rust_kernel3vga6writer6WRITER17h25e0541f3f3878f2E+0x1348>
  205414:	e8 b7 ec 00 00       	call   2140d0 <_ZN4core9panicking5panic17h8e7eea3eb5c7908eE>
  205419:	0f 0b                	ud2    
  20541b:	48 8d 3d 7e 1f 01 00 	lea    rdi,[rip+0x11f7e]        # 2173a0 <_ZN11rust_kernel3vga6writer6WRITER17h25e0541f3f3878f2E+0x1370>
  205422:	ba 00 01 00 00       	mov    edx,0x100
  205427:	48 8b 34 24          	mov    rsi,QWORD PTR [rsp]
  20542b:	e8 10 ed 00 00       	call   214140 <_ZN4core9panicking18panic_bounds_check17h22ce0c4ecd9d2668E>
  205430:	0f 0b                	ud2    
  205432:	cc                   	int3   
  205433:	cc                   	int3   
  205434:	cc                   	int3   
  205435:	cc                   	int3   
  205436:	cc                   	int3   
  205437:	cc                   	int3   
  205438:	cc                   	int3   
  205439:	cc                   	int3   
  20543a:	cc                   	int3   
  20543b:	cc                   	int3   
  20543c:	cc                   	int3   
  20543d:	cc                   	int3   
  20543e:	cc                   	int3   
  20543f:	cc                   	int3   

0000000000205440 <_ZN11rust_kernel6memory15frame_allocator19FrameStackAllocator3new17hc5429c8662198e2dE>:
  205440:	48 81 ec 48 08 00 00 	sub    rsp,0x848
  205447:	48 89 f8             	mov    rax,rdi
  20544a:	48 89 74 24 28       	mov    QWORD PTR [rsp+0x28],rsi
  20544f:	48 8b 74 24 28       	mov    rsi,QWORD PTR [rsp+0x28]
  205454:	48 8d 4c 24 30       	lea    rcx,[rsp+0x30]
  205459:	48 89 7c 24 20       	mov    QWORD PTR [rsp+0x20],rdi
  20545e:	48 89 cf             	mov    rdi,rcx
  205461:	48 89 44 24 18       	mov    QWORD PTR [rsp+0x18],rax
  205466:	48 89 74 24 10       	mov    QWORD PTR [rsp+0x10],rsi
  20546b:	e8 90 fe ff ff       	call   205300 <_ZN11rust_kernel6memory15frame_allocator10FrameStack5empty17h5c446fa86e8dbe31E>
  205470:	b8 08 08 00 00       	mov    eax,0x808
  205475:	89 c2                	mov    edx,eax
  205477:	48 c7 84 24 38 08 00 	mov    QWORD PTR [rsp+0x838],0x0
  20547e:	00 00 00 00 00 
  205483:	48 8b 4c 24 20       	mov    rcx,QWORD PTR [rsp+0x20]
  205488:	48 8b 74 24 10       	mov    rsi,QWORD PTR [rsp+0x10]
  20548d:	48 89 31             	mov    QWORD PTR [rcx],rsi
  205490:	48 83 c1 08          	add    rcx,0x8
  205494:	48 8d 7c 24 30       	lea    rdi,[rsp+0x30]
  205499:	48 89 7c 24 08       	mov    QWORD PTR [rsp+0x8],rdi
  20549e:	48 89 cf             	mov    rdi,rcx
  2054a1:	48 8b 74 24 08       	mov    rsi,QWORD PTR [rsp+0x8]
  2054a6:	e8 f5 ed 00 00       	call   2142a0 <memcpy>
  2054ab:	48 8b 8c 24 38 08 00 	mov    rcx,QWORD PTR [rsp+0x838]
  2054b2:	00 
  2054b3:	48 8b 94 24 40 08 00 	mov    rdx,QWORD PTR [rsp+0x840]
  2054ba:	00 
  2054bb:	48 8b 74 24 20       	mov    rsi,QWORD PTR [rsp+0x20]
  2054c0:	48 89 8e 10 08 00 00 	mov    QWORD PTR [rsi+0x810],rcx
  2054c7:	48 89 96 18 08 00 00 	mov    QWORD PTR [rsi+0x818],rdx
  2054ce:	48 8b 44 24 18       	mov    rax,QWORD PTR [rsp+0x18]
  2054d3:	48 81 c4 48 08 00 00 	add    rsp,0x848
  2054da:	c3                   	ret    
  2054db:	cc                   	int3   
  2054dc:	cc                   	int3   
  2054dd:	cc                   	int3   
  2054de:	cc                   	int3   
  2054df:	cc                   	int3   

00000000002054e0 <_ZN11rust_kernel6memory15frame_allocator19FrameStackAllocator17first_free_region17h98fd8f52e42d15ceE>:
  2054e0:	48 83 ec 48          	sub    rsp,0x48
  2054e4:	48 89 7c 24 28       	mov    QWORD PTR [rsp+0x28],rdi
  2054e9:	48 8b 7c 24 28       	mov    rdi,QWORD PTR [rsp+0x28]
  2054ee:	48 8b 3f             	mov    rdi,QWORD PTR [rdi]
  2054f1:	be 80 00 00 00       	mov    esi,0x80
  2054f6:	e8 45 1e 00 00       	call   207340 <_ZN4core5slice29_$LT$impl$u20$$u5b$T$u5d$$GT$4iter17h4233098c179fb5faE>
  2054fb:	48 89 54 24 38       	mov    QWORD PTR [rsp+0x38],rdx
  205500:	48 89 44 24 30       	mov    QWORD PTR [rsp+0x30],rax
  205505:	48 8d 7c 24 30       	lea    rdi,[rsp+0x30]
  20550a:	e8 21 08 00 00       	call   205d30 <_ZN91_$LT$core..slice..Iter$LT$$u27$a$C$$u20$T$GT$$u20$as$u20$core..iter..iterator..Iterator$GT$8position17h1c478761be721db8E>
  20550f:	48 89 44 24 20       	mov    QWORD PTR [rsp+0x20],rax
  205514:	48 89 54 24 18       	mov    QWORD PTR [rsp+0x18],rdx
  205519:	48 8b 7c 24 20       	mov    rdi,QWORD PTR [rsp+0x20]
  20551e:	48 8b 74 24 18       	mov    rsi,QWORD PTR [rsp+0x18]
  205523:	e8 68 df ff ff       	call   203490 <_ZN38_$LT$core..option..Option$LT$T$GT$$GT$3map17hbf2415b2082f67e3E>
  205528:	48 89 44 24 10       	mov    QWORD PTR [rsp+0x10],rax
  20552d:	48 89 54 24 08       	mov    QWORD PTR [rsp+0x8],rdx
  205532:	48 8b 44 24 10       	mov    rax,QWORD PTR [rsp+0x10]
  205537:	48 8b 54 24 08       	mov    rdx,QWORD PTR [rsp+0x8]
  20553c:	48 83 c4 48          	add    rsp,0x48
  205540:	c3                   	ret    
  205541:	cc                   	int3   
  205542:	cc                   	int3   
  205543:	cc                   	int3   
  205544:	cc                   	int3   
  205545:	cc                   	int3   
  205546:	cc                   	int3   
  205547:	cc                   	int3   
  205548:	cc                   	int3   
  205549:	cc                   	int3   
  20554a:	cc                   	int3   
  20554b:	cc                   	int3   
  20554c:	cc                   	int3   
  20554d:	cc                   	int3   
  20554e:	cc                   	int3   
  20554f:	cc                   	int3   

0000000000205550 <_ZN11rust_kernel6memory15frame_allocator19FrameStackAllocator7r_index17h7209dcbb36e73e78E>:
  205550:	48 83 ec 28          	sub    rsp,0x28
  205554:	48 89 7c 24 10       	mov    QWORD PTR [rsp+0x10],rdi
  205559:	48 8b 7c 24 10       	mov    rdi,QWORD PTR [rsp+0x10]
  20555e:	48 83 bf 10 08 00 00 	cmp    QWORD PTR [rdi+0x810],0x1
  205565:	01 
  205566:	74 15                	je     20557d <_ZN11rust_kernel6memory15frame_allocator19FrameStackAllocator7r_index17h7209dcbb36e73e78E+0x2d>
  205568:	48 8b 7c 24 10       	mov    rdi,QWORD PTR [rsp+0x10]
  20556d:	e8 6e ff ff ff       	call   2054e0 <_ZN11rust_kernel6memory15frame_allocator19FrameStackAllocator17first_free_region17h98fd8f52e42d15ceE>
  205572:	48 89 44 24 08       	mov    QWORD PTR [rsp+0x8],rax
  205577:	48 89 14 24          	mov    QWORD PTR [rsp],rdx
  20557b:	eb 25                	jmp    2055a2 <_ZN11rust_kernel6memory15frame_allocator19FrameStackAllocator7r_index17h7209dcbb36e73e78E+0x52>
  20557d:	48 8b 44 24 10       	mov    rax,QWORD PTR [rsp+0x10]
  205582:	48 8b 80 18 08 00 00 	mov    rax,QWORD PTR [rax+0x818]
  205589:	48 89 44 24 20       	mov    QWORD PTR [rsp+0x20],rax
  20558e:	48 8b 44 24 20       	mov    rax,QWORD PTR [rsp+0x20]
  205593:	48 89 44 24 18       	mov    QWORD PTR [rsp+0x18],rax
  205598:	48 8b 44 24 18       	mov    rax,QWORD PTR [rsp+0x18]
  20559d:	48 83 c4 28          	add    rsp,0x28
  2055a1:	c3                   	ret    
  2055a2:	48 8d 05 38 af ff ff 	lea    rax,[rip+0xffffffffffffaf38]        # 2004e1 <str.1+0x21>
  2055a9:	b9 19 00 00 00       	mov    ecx,0x19
  2055ae:	48 8b 54 24 10       	mov    rdx,QWORD PTR [rsp+0x10]
  2055b3:	48 8b 74 24 08       	mov    rsi,QWORD PTR [rsp+0x8]
  2055b8:	48 89 b2 10 08 00 00 	mov    QWORD PTR [rdx+0x810],rsi
  2055bf:	48 8b 3c 24          	mov    rdi,QWORD PTR [rsp]
  2055c3:	48 89 ba 18 08 00 00 	mov    QWORD PTR [rdx+0x818],rdi
  2055ca:	48 8b 54 24 10       	mov    rdx,QWORD PTR [rsp+0x10]
  2055cf:	48 8b ba 10 08 00 00 	mov    rdi,QWORD PTR [rdx+0x810]
  2055d6:	48 8b b2 18 08 00 00 	mov    rsi,QWORD PTR [rdx+0x818]
  2055dd:	48 89 c2             	mov    rdx,rax
  2055e0:	e8 5b e0 ff ff       	call   203640 <_ZN38_$LT$core..option..Option$LT$T$GT$$GT$6expect17h577682cffd3d6263E>
  2055e5:	48 89 44 24 18       	mov    QWORD PTR [rsp+0x18],rax
  2055ea:	eb ac                	jmp    205598 <_ZN11rust_kernel6memory15frame_allocator19FrameStackAllocator7r_index17h7209dcbb36e73e78E+0x48>
  2055ec:	cc                   	int3   
  2055ed:	cc                   	int3   
  2055ee:	cc                   	int3   
  2055ef:	cc                   	int3   

00000000002055f0 <_ZN11rust_kernel6memory15frame_allocator19FrameStackAllocator8c_region17hd99ed96014efc016E>:
  2055f0:	48 83 ec 18          	sub    rsp,0x18
  2055f4:	48 89 7c 24 10       	mov    QWORD PTR [rsp+0x10],rdi
  2055f9:	48 8b 7c 24 10       	mov    rdi,QWORD PTR [rsp+0x10]
  2055fe:	e8 4d ff ff ff       	call   205550 <_ZN11rust_kernel6memory15frame_allocator19FrameStackAllocator7r_index17h7209dcbb36e73e78E>
  205603:	48 89 44 24 08       	mov    QWORD PTR [rsp+0x8],rax
  205608:	48 8b 44 24 08       	mov    rax,QWORD PTR [rsp+0x8]
  20560d:	48 3d 80 00 00 00    	cmp    rax,0x80
  205613:	0f 92 c1             	setb   cl
  205616:	f6 c1 01             	test   cl,0x1
  205619:	75 02                	jne    20561d <_ZN11rust_kernel6memory15frame_allocator19FrameStackAllocator8c_region17hd99ed96014efc016E+0x2d>
  20561b:	eb 19                	jmp    205636 <_ZN11rust_kernel6memory15frame_allocator19FrameStackAllocator8c_region17hd99ed96014efc016E+0x46>
  20561d:	48 8b 44 24 10       	mov    rax,QWORD PTR [rsp+0x10]
  205622:	48 8b 4c 24 08       	mov    rcx,QWORD PTR [rsp+0x8]
  205627:	48 6b d1 18          	imul   rdx,rcx,0x18
  20562b:	48 03 10             	add    rdx,QWORD PTR [rax]
  20562e:	48 89 d0             	mov    rax,rdx
  205631:	48 83 c4 18          	add    rsp,0x18
  205635:	c3                   	ret    
  205636:	48 8d 3d 7b 1d 01 00 	lea    rdi,[rip+0x11d7b]        # 2173b8 <_ZN11rust_kernel3vga6writer6WRITER17h25e0541f3f3878f2E+0x1388>
  20563d:	ba 80 00 00 00       	mov    edx,0x80
  205642:	48 8b 74 24 08       	mov    rsi,QWORD PTR [rsp+0x8]
  205647:	e8 f4 ea 00 00       	call   214140 <_ZN4core9panicking18panic_bounds_check17h22ce0c4ecd9d2668E>
  20564c:	0f 0b                	ud2    
  20564e:	cc                   	int3   
  20564f:	cc                   	int3   

0000000000205650 <_ZN11rust_kernel6memory15frame_allocator19FrameStackAllocator8p_region17hca7b1b07cd4aab77E>:
  205650:	48 83 ec 18          	sub    rsp,0x18
  205654:	48 89 7c 24 10       	mov    QWORD PTR [rsp+0x10],rdi
  205659:	48 8b 7c 24 10       	mov    rdi,QWORD PTR [rsp+0x10]
  20565e:	e8 ed fe ff ff       	call   205550 <_ZN11rust_kernel6memory15frame_allocator19FrameStackAllocator7r_index17h7209dcbb36e73e78E>
  205663:	48 89 44 24 08       	mov    QWORD PTR [rsp+0x8],rax
  205668:	48 8b 44 24 08       	mov    rax,QWORD PTR [rsp+0x8]
  20566d:	48 83 e8 01          	sub    rax,0x1
  205671:	0f 92 c1             	setb   cl
  205674:	f6 c1 01             	test   cl,0x1
  205677:	48 89 04 24          	mov    QWORD PTR [rsp],rax
  20567b:	75 2c                	jne    2056a9 <_ZN11rust_kernel6memory15frame_allocator19FrameStackAllocator8p_region17hca7b1b07cd4aab77E+0x59>
  20567d:	48 8b 04 24          	mov    rax,QWORD PTR [rsp]
  205681:	48 3d 80 00 00 00    	cmp    rax,0x80
  205687:	0f 92 c1             	setb   cl
  20568a:	f6 c1 01             	test   cl,0x1
  20568d:	75 02                	jne    205691 <_ZN11rust_kernel6memory15frame_allocator19FrameStackAllocator8p_region17hca7b1b07cd4aab77E+0x41>
  20568f:	eb 26                	jmp    2056b7 <_ZN11rust_kernel6memory15frame_allocator19FrameStackAllocator8p_region17hca7b1b07cd4aab77E+0x67>
  205691:	48 8b 44 24 10       	mov    rax,QWORD PTR [rsp+0x10]
  205696:	48 8b 0c 24          	mov    rcx,QWORD PTR [rsp]
  20569a:	48 6b d1 18          	imul   rdx,rcx,0x18
  20569e:	48 03 10             	add    rdx,QWORD PTR [rax]
  2056a1:	48 89 d0             	mov    rax,rdx
  2056a4:	48 83 c4 18          	add    rsp,0x18
  2056a8:	c3                   	ret    
  2056a9:	48 8d 3d 20 1d 01 00 	lea    rdi,[rip+0x11d20]        # 2173d0 <_ZN11rust_kernel3vga6writer6WRITER17h25e0541f3f3878f2E+0x13a0>
  2056b0:	e8 1b ea 00 00       	call   2140d0 <_ZN4core9panicking5panic17h8e7eea3eb5c7908eE>
  2056b5:	0f 0b                	ud2    
  2056b7:	48 8d 3d 3a 1d 01 00 	lea    rdi,[rip+0x11d3a]        # 2173f8 <_ZN11rust_kernel3vga6writer6WRITER17h25e0541f3f3878f2E+0x13c8>
  2056be:	ba 80 00 00 00       	mov    edx,0x80
  2056c3:	48 8b 34 24          	mov    rsi,QWORD PTR [rsp]
  2056c7:	e8 74 ea 00 00       	call   214140 <_ZN4core9panicking18panic_bounds_check17h22ce0c4ecd9d2668E>
  2056cc:	0f 0b                	ud2    
  2056ce:	cc                   	int3   
  2056cf:	cc                   	int3   

00000000002056d0 <_ZN177_$LT$rust_kernel..memory..frame_allocator..FrameStackAllocator$u20$as$u20$x86_64..structures..paging..frame_alloc..FrameAllocator$LT$x86_64..structures..paging..Size4KiB$GT$$GT$5alloc17h93b7d26b5485d176E>:
  2056d0:	48 81 ec c8 00 00 00 	sub    rsp,0xc8
  2056d7:	48 89 f8             	mov    rax,rdi
  2056da:	48 89 b4 24 80 00 00 	mov    QWORD PTR [rsp+0x80],rsi
  2056e1:	00 
  2056e2:	48 8b b4 24 80 00 00 	mov    rsi,QWORD PTR [rsp+0x80]
  2056e9:	00 
  2056ea:	48 83 c6 08          	add    rsi,0x8
  2056ee:	48 89 7c 24 78       	mov    QWORD PTR [rsp+0x78],rdi
  2056f3:	48 89 f7             	mov    rdi,rsi
  2056f6:	48 89 44 24 70       	mov    QWORD PTR [rsp+0x70],rax
  2056fb:	e8 70 fc ff ff       	call   205370 <_ZN11rust_kernel6memory15frame_allocator10FrameStack3pop17hf63dd48af0634964E>
  205700:	48 89 94 24 90 00 00 	mov    QWORD PTR [rsp+0x90],rdx
  205707:	00 
  205708:	48 89 84 24 88 00 00 	mov    QWORD PTR [rsp+0x88],rax
  20570f:	00 
  205710:	48 83 bc 24 88 00 00 	cmp    QWORD PTR [rsp+0x88],0x1
  205717:	00 01 
  205719:	74 17                	je     205732 <_ZN177_$LT$rust_kernel..memory..frame_allocator..FrameStackAllocator$u20$as$u20$x86_64..structures..paging..frame_alloc..FrameAllocator$LT$x86_64..structures..paging..Size4KiB$GT$$GT$5alloc17h93b7d26b5485d176E+0x62>
  20571b:	48 8b bc 24 80 00 00 	mov    rdi,QWORD PTR [rsp+0x80]
  205722:	00 
  205723:	e8 28 fe ff ff       	call   205550 <_ZN11rust_kernel6memory15frame_allocator19FrameStackAllocator7r_index17h7209dcbb36e73e78E>
  205728:	48 89 44 24 68       	mov    QWORD PTR [rsp+0x68],rax
  20572d:	e9 8f 00 00 00       	jmp    2057c1 <_ZN177_$LT$rust_kernel..memory..frame_allocator..FrameStackAllocator$u20$as$u20$x86_64..structures..paging..frame_alloc..FrameAllocator$LT$x86_64..structures..paging..Size4KiB$GT$$GT$5alloc17h93b7d26b5485d176E+0xf1>
  205732:	b8 00 10 00 00       	mov    eax,0x1000
  205737:	89 c1                	mov    ecx,eax
  205739:	48 8b 94 24 90 00 00 	mov    rdx,QWORD PTR [rsp+0x90]
  205740:	00 
  205741:	48 89 94 24 98 00 00 	mov    QWORD PTR [rsp+0x98],rdx
  205748:	00 
  205749:	48 8b 84 24 98 00 00 	mov    rax,QWORD PTR [rsp+0x98]
  205750:	00 
  205751:	48 f7 e1             	mul    rcx
  205754:	40 0f 90 c6          	seto   sil
  205758:	40 f6 c6 01          	test   sil,0x1
  20575c:	48 89 44 24 60       	mov    QWORD PTR [rsp+0x60],rax
  205761:	0f 85 27 02 00 00    	jne    20598e <_ZN177_$LT$rust_kernel..memory..frame_allocator..FrameStackAllocator$u20$as$u20$x86_64..structures..paging..frame_alloc..FrameAllocator$LT$x86_64..structures..paging..Size4KiB$GT$$GT$5alloc17h93b7d26b5485d176E+0x2be>
  205767:	eb 0d                	jmp    205776 <_ZN177_$LT$rust_kernel..memory..frame_allocator..FrameStackAllocator$u20$as$u20$x86_64..structures..paging..frame_alloc..FrameAllocator$LT$x86_64..structures..paging..Size4KiB$GT$$GT$5alloc17h93b7d26b5485d176E+0xa6>
  205769:	48 8b 44 24 70       	mov    rax,QWORD PTR [rsp+0x70]
  20576e:	48 81 c4 c8 00 00 00 	add    rsp,0xc8
  205775:	c3                   	ret    
  205776:	48 8b 7c 24 60       	mov    rdi,QWORD PTR [rsp+0x60]
  20577b:	e8 30 8f 00 00       	call   20e6b0 <_ZN6x86_644addr8PhysAddr3new17haed1ad23679c7213E>
  205780:	48 89 44 24 58       	mov    QWORD PTR [rsp+0x58],rax
  205785:	48 8b 7c 24 58       	mov    rdi,QWORD PTR [rsp+0x58]
  20578a:	e8 c1 9b 00 00       	call   20f350 <_ZN55_$LT$x86_64..structures..paging..PhysFrame$LT$S$GT$$GT$18containing_address17h6a9776e3213f70b2E>
  20578f:	48 89 84 24 c0 00 00 	mov    QWORD PTR [rsp+0xc0],rax
  205796:	00 
  205797:	48 8b 84 24 c0 00 00 	mov    rax,QWORD PTR [rsp+0xc0]
  20579e:	00 
  20579f:	48 89 84 24 a0 00 00 	mov    QWORD PTR [rsp+0xa0],rax
  2057a6:	00 
  2057a7:	48 8b 84 24 a0 00 00 	mov    rax,QWORD PTR [rsp+0xa0]
  2057ae:	00 
  2057af:	48 8b 4c 24 78       	mov    rcx,QWORD PTR [rsp+0x78]
  2057b4:	48 89 41 08          	mov    QWORD PTR [rcx+0x8],rax
  2057b8:	48 c7 01 01 00 00 00 	mov    QWORD PTR [rcx],0x1
  2057bf:	eb a8                	jmp    205769 <_ZN177_$LT$rust_kernel..memory..frame_allocator..FrameStackAllocator$u20$as$u20$x86_64..structures..paging..frame_alloc..FrameAllocator$LT$x86_64..structures..paging..Size4KiB$GT$$GT$5alloc17h93b7d26b5485d176E+0x99>
  2057c1:	48 8b 44 24 68       	mov    rax,QWORD PTR [rsp+0x68]
  2057c6:	48 83 f8 00          	cmp    rax,0x0
  2057ca:	76 14                	jbe    2057e0 <_ZN177_$LT$rust_kernel..memory..frame_allocator..FrameStackAllocator$u20$as$u20$x86_64..structures..paging..frame_alloc..FrameAllocator$LT$x86_64..structures..paging..Size4KiB$GT$$GT$5alloc17h93b7d26b5485d176E+0x110>
  2057cc:	48 8b bc 24 80 00 00 	mov    rdi,QWORD PTR [rsp+0x80]
  2057d3:	00 
  2057d4:	e8 17 fe ff ff       	call   2055f0 <_ZN11rust_kernel6memory15frame_allocator19FrameStackAllocator8c_region17hd99ed96014efc016E>
  2057d9:	48 89 44 24 50       	mov    QWORD PTR [rsp+0x50],rax
  2057de:	eb 0e                	jmp    2057ee <_ZN177_$LT$rust_kernel..memory..frame_allocator..FrameStackAllocator$u20$as$u20$x86_64..structures..paging..frame_alloc..FrameAllocator$LT$x86_64..structures..paging..Size4KiB$GT$$GT$5alloc17h93b7d26b5485d176E+0x11e>
  2057e0:	48 8d 3d c9 1c 01 00 	lea    rdi,[rip+0x11cc9]        # 2174b0 <_ZN11rust_kernel3vga6writer6WRITER17h25e0541f3f3878f2E+0x1480>
  2057e7:	e8 e4 e8 00 00       	call   2140d0 <_ZN4core9panicking5panic17h8e7eea3eb5c7908eE>
  2057ec:	0f 0b                	ud2    
  2057ee:	48 8b 44 24 50       	mov    rax,QWORD PTR [rsp+0x50]
  2057f3:	48 8b 08             	mov    rcx,QWORD PTR [rax]
  2057f6:	48 89 8c 24 a8 00 00 	mov    QWORD PTR [rsp+0xa8],rcx
  2057fd:	00 
  2057fe:	48 8b bc 24 80 00 00 	mov    rdi,QWORD PTR [rsp+0x80]
  205805:	00 
  205806:	e8 e5 fd ff ff       	call   2055f0 <_ZN11rust_kernel6memory15frame_allocator19FrameStackAllocator8c_region17hd99ed96014efc016E>
  20580b:	48 89 44 24 48       	mov    QWORD PTR [rsp+0x48],rax
  205810:	48 8b 44 24 48       	mov    rax,QWORD PTR [rsp+0x48]
  205815:	48 8b 08             	mov    rcx,QWORD PTR [rax]
  205818:	48 83 c1 01          	add    rcx,0x1
  20581c:	0f 92 c2             	setb   dl
  20581f:	f6 c2 01             	test   dl,0x1
  205822:	48 89 4c 24 40       	mov    QWORD PTR [rsp+0x40],rcx
  205827:	0f 85 29 01 00 00    	jne    205956 <_ZN177_$LT$rust_kernel..memory..frame_allocator..FrameStackAllocator$u20$as$u20$x86_64..structures..paging..frame_alloc..FrameAllocator$LT$x86_64..structures..paging..Size4KiB$GT$$GT$5alloc17h93b7d26b5485d176E+0x286>
  20582d:	48 8b 44 24 48       	mov    rax,QWORD PTR [rsp+0x48]
  205832:	48 8b 4c 24 40       	mov    rcx,QWORD PTR [rsp+0x40]
  205837:	48 89 08             	mov    QWORD PTR [rax],rcx
  20583a:	48 8b bc 24 80 00 00 	mov    rdi,QWORD PTR [rsp+0x80]
  205841:	00 
  205842:	e8 a9 fd ff ff       	call   2055f0 <_ZN11rust_kernel6memory15frame_allocator19FrameStackAllocator8c_region17hd99ed96014efc016E>
  205847:	48 89 44 24 38       	mov    QWORD PTR [rsp+0x38],rax
  20584c:	48 8b 44 24 38       	mov    rax,QWORD PTR [rsp+0x38]
  205851:	48 8b 48 08          	mov    rcx,QWORD PTR [rax+0x8]
  205855:	48 83 e9 01          	sub    rcx,0x1
  205859:	0f 92 c2             	setb   dl
  20585c:	f6 c2 01             	test   dl,0x1
  20585f:	48 89 4c 24 30       	mov    QWORD PTR [rsp+0x30],rcx
  205864:	0f 85 fa 00 00 00    	jne    205964 <_ZN177_$LT$rust_kernel..memory..frame_allocator..FrameStackAllocator$u20$as$u20$x86_64..structures..paging..frame_alloc..FrameAllocator$LT$x86_64..structures..paging..Size4KiB$GT$$GT$5alloc17h93b7d26b5485d176E+0x294>
  20586a:	48 8b 44 24 38       	mov    rax,QWORD PTR [rsp+0x38]
  20586f:	48 8b 4c 24 30       	mov    rcx,QWORD PTR [rsp+0x30]
  205874:	48 89 48 08          	mov    QWORD PTR [rax+0x8],rcx
  205878:	48 8b bc 24 80 00 00 	mov    rdi,QWORD PTR [rsp+0x80]
  20587f:	00 
  205880:	e8 cb fd ff ff       	call   205650 <_ZN11rust_kernel6memory15frame_allocator19FrameStackAllocator8p_region17hca7b1b07cd4aab77E>
  205885:	48 89 44 24 28       	mov    QWORD PTR [rsp+0x28],rax
  20588a:	48 8b 44 24 28       	mov    rax,QWORD PTR [rsp+0x28]
  20588f:	48 8b 48 08          	mov    rcx,QWORD PTR [rax+0x8]
  205893:	48 83 c1 01          	add    rcx,0x1
  205897:	0f 92 c2             	setb   dl
  20589a:	f6 c2 01             	test   dl,0x1
  20589d:	48 89 4c 24 20       	mov    QWORD PTR [rsp+0x20],rcx
  2058a2:	0f 85 ca 00 00 00    	jne    205972 <_ZN177_$LT$rust_kernel..memory..frame_allocator..FrameStackAllocator$u20$as$u20$x86_64..structures..paging..frame_alloc..FrameAllocator$LT$x86_64..structures..paging..Size4KiB$GT$$GT$5alloc17h93b7d26b5485d176E+0x2a2>
  2058a8:	48 8b 44 24 28       	mov    rax,QWORD PTR [rsp+0x28]
  2058ad:	48 8b 4c 24 20       	mov    rcx,QWORD PTR [rsp+0x20]
  2058b2:	48 89 48 08          	mov    QWORD PTR [rax+0x8],rcx
  2058b6:	48 8b bc 24 80 00 00 	mov    rdi,QWORD PTR [rsp+0x80]
  2058bd:	00 
  2058be:	e8 2d fd ff ff       	call   2055f0 <_ZN11rust_kernel6memory15frame_allocator19FrameStackAllocator8c_region17hd99ed96014efc016E>
  2058c3:	48 89 44 24 18       	mov    QWORD PTR [rsp+0x18],rax
  2058c8:	48 8b 44 24 18       	mov    rax,QWORD PTR [rsp+0x18]
  2058cd:	48 83 78 08 00       	cmp    QWORD PTR [rax+0x8],0x0
  2058d2:	75 13                	jne    2058e7 <_ZN177_$LT$rust_kernel..memory..frame_allocator..FrameStackAllocator$u20$as$u20$x86_64..structures..paging..frame_alloc..FrameAllocator$LT$x86_64..structures..paging..Size4KiB$GT$$GT$5alloc17h93b7d26b5485d176E+0x217>
  2058d4:	48 8b 84 24 80 00 00 	mov    rax,QWORD PTR [rsp+0x80]
  2058db:	00 
  2058dc:	48 c7 80 10 08 00 00 	mov    QWORD PTR [rax+0x810],0x0
  2058e3:	00 00 00 00 
  2058e7:	b8 00 10 00 00       	mov    eax,0x1000
  2058ec:	89 c1                	mov    ecx,eax
  2058ee:	48 8b 84 24 a8 00 00 	mov    rax,QWORD PTR [rsp+0xa8]
  2058f5:	00 
  2058f6:	48 f7 e1             	mul    rcx
  2058f9:	40 0f 90 c6          	seto   sil
  2058fd:	40 f6 c6 01          	test   sil,0x1
  205901:	48 89 44 24 10       	mov    QWORD PTR [rsp+0x10],rax
  205906:	75 78                	jne    205980 <_ZN177_$LT$rust_kernel..memory..frame_allocator..FrameStackAllocator$u20$as$u20$x86_64..structures..paging..frame_alloc..FrameAllocator$LT$x86_64..structures..paging..Size4KiB$GT$$GT$5alloc17h93b7d26b5485d176E+0x2b0>
  205908:	48 8b 7c 24 10       	mov    rdi,QWORD PTR [rsp+0x10]
  20590d:	e8 9e 8d 00 00       	call   20e6b0 <_ZN6x86_644addr8PhysAddr3new17haed1ad23679c7213E>
  205912:	48 89 44 24 08       	mov    QWORD PTR [rsp+0x8],rax
  205917:	48 8b 7c 24 08       	mov    rdi,QWORD PTR [rsp+0x8]
  20591c:	e8 2f 9a 00 00       	call   20f350 <_ZN55_$LT$x86_64..structures..paging..PhysFrame$LT$S$GT$$GT$18containing_address17h6a9776e3213f70b2E>
  205921:	48 89 84 24 b8 00 00 	mov    QWORD PTR [rsp+0xb8],rax
  205928:	00 
  205929:	48 8b 84 24 b8 00 00 	mov    rax,QWORD PTR [rsp+0xb8]
  205930:	00 
  205931:	48 89 84 24 b0 00 00 	mov    QWORD PTR [rsp+0xb0],rax
  205938:	00 
  205939:	48 8b 84 24 b0 00 00 	mov    rax,QWORD PTR [rsp+0xb0]
  205940:	00 
  205941:	48 8b 4c 24 78       	mov    rcx,QWORD PTR [rsp+0x78]
  205946:	48 89 41 08          	mov    QWORD PTR [rcx+0x8],rax
  20594a:	48 c7 01 01 00 00 00 	mov    QWORD PTR [rcx],0x1
  205951:	e9 13 fe ff ff       	jmp    205769 <_ZN177_$LT$rust_kernel..memory..frame_allocator..FrameStackAllocator$u20$as$u20$x86_64..structures..paging..frame_alloc..FrameAllocator$LT$x86_64..structures..paging..Size4KiB$GT$$GT$5alloc17h93b7d26b5485d176E+0x99>
  205956:	48 8d 3d b3 1a 01 00 	lea    rdi,[rip+0x11ab3]        # 217410 <_ZN11rust_kernel3vga6writer6WRITER17h25e0541f3f3878f2E+0x13e0>
  20595d:	e8 6e e7 00 00       	call   2140d0 <_ZN4core9panicking5panic17h8e7eea3eb5c7908eE>
  205962:	0f 0b                	ud2    
  205964:	48 8d 3d cd 1a 01 00 	lea    rdi,[rip+0x11acd]        # 217438 <_ZN11rust_kernel3vga6writer6WRITER17h25e0541f3f3878f2E+0x1408>
  20596b:	e8 60 e7 00 00       	call   2140d0 <_ZN4core9panicking5panic17h8e7eea3eb5c7908eE>
  205970:	0f 0b                	ud2    
  205972:	48 8d 3d e7 1a 01 00 	lea    rdi,[rip+0x11ae7]        # 217460 <_ZN11rust_kernel3vga6writer6WRITER17h25e0541f3f3878f2E+0x1430>
  205979:	e8 52 e7 00 00       	call   2140d0 <_ZN4core9panicking5panic17h8e7eea3eb5c7908eE>
  20597e:	0f 0b                	ud2    
  205980:	48 8d 3d 01 1b 01 00 	lea    rdi,[rip+0x11b01]        # 217488 <_ZN11rust_kernel3vga6writer6WRITER17h25e0541f3f3878f2E+0x1458>
  205987:	e8 44 e7 00 00       	call   2140d0 <_ZN4core9panicking5panic17h8e7eea3eb5c7908eE>
  20598c:	0f 0b                	ud2    
  20598e:	48 8d 3d 43 1b 01 00 	lea    rdi,[rip+0x11b43]        # 2174d8 <_ZN11rust_kernel3vga6writer6WRITER17h25e0541f3f3878f2E+0x14a8>
  205995:	e8 36 e7 00 00       	call   2140d0 <_ZN4core9panicking5panic17h8e7eea3eb5c7908eE>
  20599a:	0f 0b                	ud2    
  20599c:	cc                   	int3   
  20599d:	cc                   	int3   
  20599e:	cc                   	int3   
  20599f:	cc                   	int3   

00000000002059a0 <_ZN4core4iter8iterator8Iterator6cloned17hd22454913828d6e4E>:
  2059a0:	48 83 ec 20          	sub    rsp,0x20
  2059a4:	48 89 3c 24          	mov    QWORD PTR [rsp],rdi
  2059a8:	48 89 74 24 08       	mov    QWORD PTR [rsp+0x8],rsi
  2059ad:	48 8b 34 24          	mov    rsi,QWORD PTR [rsp]
  2059b1:	48 8b 7c 24 08       	mov    rdi,QWORD PTR [rsp+0x8]
  2059b6:	48 89 74 24 10       	mov    QWORD PTR [rsp+0x10],rsi
  2059bb:	48 89 7c 24 18       	mov    QWORD PTR [rsp+0x18],rdi
  2059c0:	48 8b 44 24 10       	mov    rax,QWORD PTR [rsp+0x10]
  2059c5:	48 8b 54 24 18       	mov    rdx,QWORD PTR [rsp+0x18]
  2059ca:	48 83 c4 20          	add    rsp,0x20
  2059ce:	c3                   	ret    
  2059cf:	cc                   	int3   

00000000002059d0 <_ZN4core5slice18from_raw_parts_mut17h2ebd69fa8f7c7d46E>:
  2059d0:	48 83 ec 30          	sub    rsp,0x30
  2059d4:	48 89 3c 24          	mov    QWORD PTR [rsp],rdi
  2059d8:	48 89 74 24 08       	mov    QWORD PTR [rsp+0x8],rsi
  2059dd:	48 8b 34 24          	mov    rsi,QWORD PTR [rsp]
  2059e1:	48 8b 7c 24 08       	mov    rdi,QWORD PTR [rsp+0x8]
  2059e6:	48 89 74 24 20       	mov    QWORD PTR [rsp+0x20],rsi
  2059eb:	48 89 7c 24 28       	mov    QWORD PTR [rsp+0x28],rdi
  2059f0:	48 8b 74 24 20       	mov    rsi,QWORD PTR [rsp+0x20]
  2059f5:	48 8b 7c 24 28       	mov    rdi,QWORD PTR [rsp+0x28]
  2059fa:	48 89 74 24 10       	mov    QWORD PTR [rsp+0x10],rsi
  2059ff:	48 89 7c 24 18       	mov    QWORD PTR [rsp+0x18],rdi
  205a04:	48 8b 44 24 10       	mov    rax,QWORD PTR [rsp+0x10]
  205a09:	48 8b 54 24 18       	mov    rdx,QWORD PTR [rsp+0x18]
  205a0e:	48 83 c4 30          	add    rsp,0x30
  205a12:	c3                   	ret    
  205a13:	cc                   	int3   
  205a14:	cc                   	int3   
  205a15:	cc                   	int3   
  205a16:	cc                   	int3   
  205a17:	cc                   	int3   
  205a18:	cc                   	int3   
  205a19:	cc                   	int3   
  205a1a:	cc                   	int3   
  205a1b:	cc                   	int3   
  205a1c:	cc                   	int3   
  205a1d:	cc                   	int3   
  205a1e:	cc                   	int3   
  205a1f:	cc                   	int3   

0000000000205a20 <_ZN4core5slice29_$LT$impl$u20$$u5b$T$u5d$$GT$17get_unchecked_mut17hc3d6c2e3768f7d2cE>:
  205a20:	48 83 ec 28          	sub    rsp,0x28
  205a24:	48 89 7c 24 10       	mov    QWORD PTR [rsp+0x10],rdi
  205a29:	48 89 74 24 18       	mov    QWORD PTR [rsp+0x18],rsi
  205a2e:	48 89 54 24 20       	mov    QWORD PTR [rsp+0x20],rdx
  205a33:	48 8b 7c 24 20       	mov    rdi,QWORD PTR [rsp+0x20]
  205a38:	48 8b 74 24 10       	mov    rsi,QWORD PTR [rsp+0x10]
  205a3d:	48 8b 54 24 18       	mov    rdx,QWORD PTR [rsp+0x18]
  205a42:	e8 09 1a 00 00       	call   207450 <_ZN101_$LT$core..ops..range..RangeTo$LT$usize$GT$$u20$as$u20$core..slice..SliceIndex$LT$$u5b$T$u5d$$GT$$GT$17get_unchecked_mut17ha7421aecc59e373cE>
  205a47:	48 89 44 24 08       	mov    QWORD PTR [rsp+0x8],rax
  205a4c:	48 89 14 24          	mov    QWORD PTR [rsp],rdx
  205a50:	48 8b 44 24 08       	mov    rax,QWORD PTR [rsp+0x8]
  205a55:	48 8b 14 24          	mov    rdx,QWORD PTR [rsp]
  205a59:	48 83 c4 28          	add    rsp,0x28
  205a5d:	c3                   	ret    
  205a5e:	cc                   	int3   
  205a5f:	cc                   	int3   

0000000000205a60 <_ZN4core5slice29_$LT$impl$u20$$u5b$T$u5d$$GT$17get_unchecked_mut17hea9c4740c7530fa5E>:
  205a60:	48 83 ec 28          	sub    rsp,0x28
  205a64:	48 89 7c 24 10       	mov    QWORD PTR [rsp+0x10],rdi
  205a69:	48 89 74 24 18       	mov    QWORD PTR [rsp+0x18],rsi
  205a6e:	48 89 54 24 20       	mov    QWORD PTR [rsp+0x20],rdx
  205a73:	48 8b 7c 24 20       	mov    rdi,QWORD PTR [rsp+0x20]
  205a78:	48 8b 74 24 10       	mov    rsi,QWORD PTR [rsp+0x10]
  205a7d:	48 8b 54 24 18       	mov    rdx,QWORD PTR [rsp+0x18]
  205a82:	e8 49 01 00 00       	call   205bd0 <_ZN68_$LT$usize$u20$as$u20$core..slice..SliceIndex$LT$$u5b$T$u5d$$GT$$GT$17get_unchecked_mut17h315c8de8b5f35b08E>
  205a87:	48 89 44 24 08       	mov    QWORD PTR [rsp+0x8],rax
  205a8c:	48 8b 44 24 08       	mov    rax,QWORD PTR [rsp+0x8]
  205a91:	48 83 c4 28          	add    rsp,0x28
  205a95:	c3                   	ret    
  205a96:	cc                   	int3   
  205a97:	cc                   	int3   
  205a98:	cc                   	int3   
  205a99:	cc                   	int3   
  205a9a:	cc                   	int3   
  205a9b:	cc                   	int3   
  205a9c:	cc                   	int3   
  205a9d:	cc                   	int3   
  205a9e:	cc                   	int3   
  205a9f:	cc                   	int3   

0000000000205aa0 <_ZN4core5slice29_$LT$impl$u20$$u5b$T$u5d$$GT$4iter17h398fba95a47d2572E>:
  205aa0:	48 83 ec 78          	sub    rsp,0x78
  205aa4:	48 89 7c 24 40       	mov    QWORD PTR [rsp+0x40],rdi
  205aa9:	48 89 74 24 48       	mov    QWORD PTR [rsp+0x48],rsi
  205aae:	48 8b 7c 24 40       	mov    rdi,QWORD PTR [rsp+0x40]
  205ab3:	48 8b 74 24 48       	mov    rsi,QWORD PTR [rsp+0x48]
  205ab8:	e8 63 4d 00 00       	call   20a820 <_ZN4core5slice29_$LT$impl$u20$$u5b$T$u5d$$GT$6as_ptr17h6d0c1f504a467de8E>
  205abd:	48 89 44 24 60       	mov    QWORD PTR [rsp+0x60],rax
  205ac2:	48 8b 7c 24 60       	mov    rdi,QWORD PTR [rsp+0x60]
  205ac7:	e8 a4 f7 ff ff       	call   205270 <_ZN4core3ptr33_$LT$impl$u20$$BP$const$u20$T$GT$7is_null17h8209e73775f1e616E>
  205acc:	88 44 24 3f          	mov    BYTE PTR [rsp+0x3f],al
  205ad0:	e8 3b 9c 00 00       	call   20f710 <_ZN4core3mem7size_of17hae62eadc2e6cab41E>
  205ad5:	48 89 44 24 30       	mov    QWORD PTR [rsp+0x30],rax
  205ada:	48 8b 44 24 30       	mov    rax,QWORD PTR [rsp+0x30]
  205adf:	48 83 f8 00          	cmp    rax,0x0
  205ae3:	75 23                	jne    205b08 <_ZN4core5slice29_$LT$impl$u20$$u5b$T$u5d$$GT$4iter17h398fba95a47d2572E+0x68>
  205ae5:	48 8b 7c 24 60       	mov    rdi,QWORD PTR [rsp+0x60]
  205aea:	48 8b 44 24 40       	mov    rax,QWORD PTR [rsp+0x40]
  205aef:	48 8b 74 24 48       	mov    rsi,QWORD PTR [rsp+0x48]
  205af4:	48 89 7c 24 28       	mov    QWORD PTR [rsp+0x28],rdi
  205af9:	48 89 c7             	mov    rdi,rax
  205afc:	e8 ef 4c 00 00       	call   20a7f0 <_ZN4core5slice29_$LT$impl$u20$$u5b$T$u5d$$GT$3len17h48a35758d0cbd2adE>
  205b01:	48 89 44 24 20       	mov    QWORD PTR [rsp+0x20],rax
  205b06:	eb 23                	jmp    205b2b <_ZN4core5slice29_$LT$impl$u20$$u5b$T$u5d$$GT$4iter17h398fba95a47d2572E+0x8b>
  205b08:	48 8b 7c 24 60       	mov    rdi,QWORD PTR [rsp+0x60]
  205b0d:	48 8b 44 24 40       	mov    rax,QWORD PTR [rsp+0x40]
  205b12:	48 8b 74 24 48       	mov    rsi,QWORD PTR [rsp+0x48]
  205b17:	48 89 7c 24 18       	mov    QWORD PTR [rsp+0x18],rdi
  205b1c:	48 89 c7             	mov    rdi,rax
  205b1f:	e8 cc 4c 00 00       	call   20a7f0 <_ZN4core5slice29_$LT$impl$u20$$u5b$T$u5d$$GT$3len17h48a35758d0cbd2adE>
  205b24:	48 89 44 24 10       	mov    QWORD PTR [rsp+0x10],rax
  205b29:	eb 20                	jmp    205b4b <_ZN4core5slice29_$LT$impl$u20$$u5b$T$u5d$$GT$4iter17h398fba95a47d2572E+0xab>
  205b2b:	48 8b 7c 24 28       	mov    rdi,QWORD PTR [rsp+0x28]
  205b30:	48 8b 74 24 20       	mov    rsi,QWORD PTR [rsp+0x20]
  205b35:	e8 46 a1 00 00       	call   20fc80 <_ZN4core3ptr33_$LT$impl$u20$$BP$const$u20$T$GT$12wrapping_add17h26a4ceab758f187aE>
  205b3a:	48 89 44 24 08       	mov    QWORD PTR [rsp+0x8],rax
  205b3f:	48 8b 44 24 08       	mov    rax,QWORD PTR [rsp+0x8]
  205b44:	48 89 44 24 68       	mov    QWORD PTR [rsp+0x68],rax
  205b49:	eb 16                	jmp    205b61 <_ZN4core5slice29_$LT$impl$u20$$u5b$T$u5d$$GT$4iter17h398fba95a47d2572E+0xc1>
  205b4b:	48 8b 7c 24 18       	mov    rdi,QWORD PTR [rsp+0x18]
  205b50:	48 8b 74 24 10       	mov    rsi,QWORD PTR [rsp+0x10]
  205b55:	e8 b6 f6 ff ff       	call   205210 <_ZN4core3ptr33_$LT$impl$u20$$BP$const$u20$T$GT$3add17h98b8131836c7103cE>
  205b5a:	48 89 44 24 68       	mov    QWORD PTR [rsp+0x68],rax
  205b5f:	eb 00                	jmp    205b61 <_ZN4core5slice29_$LT$impl$u20$$u5b$T$u5d$$GT$4iter17h398fba95a47d2572E+0xc1>
  205b61:	48 8b 44 24 60       	mov    rax,QWORD PTR [rsp+0x60]
  205b66:	48 8b 4c 24 68       	mov    rcx,QWORD PTR [rsp+0x68]
  205b6b:	48 89 44 24 50       	mov    QWORD PTR [rsp+0x50],rax
  205b70:	48 89 4c 24 58       	mov    QWORD PTR [rsp+0x58],rcx
  205b75:	48 8b 44 24 50       	mov    rax,QWORD PTR [rsp+0x50]
  205b7a:	48 8b 54 24 58       	mov    rdx,QWORD PTR [rsp+0x58]
  205b7f:	48 83 c4 78          	add    rsp,0x78
  205b83:	c3                   	ret    
  205b84:	cc                   	int3   
  205b85:	cc                   	int3   
  205b86:	cc                   	int3   
  205b87:	cc                   	int3   
  205b88:	cc                   	int3   
  205b89:	cc                   	int3   
  205b8a:	cc                   	int3   
  205b8b:	cc                   	int3   
  205b8c:	cc                   	int3   
  205b8d:	cc                   	int3   
  205b8e:	cc                   	int3   
  205b8f:	cc                   	int3   

0000000000205b90 <_ZN4core5slice29_$LT$impl$u20$$u5b$T$u5d$$GT$8is_empty17h884ecf5c18fb43cdE>:
  205b90:	48 83 ec 18          	sub    rsp,0x18
  205b94:	48 89 7c 24 08       	mov    QWORD PTR [rsp+0x8],rdi
  205b99:	48 89 74 24 10       	mov    QWORD PTR [rsp+0x10],rsi
  205b9e:	48 8b 7c 24 08       	mov    rdi,QWORD PTR [rsp+0x8]
  205ba3:	48 8b 74 24 10       	mov    rsi,QWORD PTR [rsp+0x10]
  205ba8:	e8 43 4c 00 00       	call   20a7f0 <_ZN4core5slice29_$LT$impl$u20$$u5b$T$u5d$$GT$3len17h48a35758d0cbd2adE>
  205bad:	48 89 04 24          	mov    QWORD PTR [rsp],rax
  205bb1:	48 8b 04 24          	mov    rax,QWORD PTR [rsp]
  205bb5:	48 83 f8 00          	cmp    rax,0x0
  205bb9:	0f 94 c1             	sete   cl
  205bbc:	80 e1 01             	and    cl,0x1
  205bbf:	0f b6 c1             	movzx  eax,cl
  205bc2:	48 83 c4 18          	add    rsp,0x18
  205bc6:	c3                   	ret    
  205bc7:	cc                   	int3   
  205bc8:	cc                   	int3   
  205bc9:	cc                   	int3   
  205bca:	cc                   	int3   
  205bcb:	cc                   	int3   
  205bcc:	cc                   	int3   
  205bcd:	cc                   	int3   
  205bce:	cc                   	int3   
  205bcf:	cc                   	int3   

0000000000205bd0 <_ZN68_$LT$usize$u20$as$u20$core..slice..SliceIndex$LT$$u5b$T$u5d$$GT$$GT$17get_unchecked_mut17h315c8de8b5f35b08E>:
  205bd0:	48 83 ec 28          	sub    rsp,0x28
  205bd4:	48 89 7c 24 10       	mov    QWORD PTR [rsp+0x10],rdi
  205bd9:	48 89 74 24 18       	mov    QWORD PTR [rsp+0x18],rsi
  205bde:	48 89 54 24 20       	mov    QWORD PTR [rsp+0x20],rdx
  205be3:	48 8b 7c 24 18       	mov    rdi,QWORD PTR [rsp+0x18]
  205be8:	48 8b 74 24 20       	mov    rsi,QWORD PTR [rsp+0x20]
  205bed:	e8 5e a1 00 00       	call   20fd50 <_ZN4core5slice29_$LT$impl$u20$$u5b$T$u5d$$GT$10as_mut_ptr17ha50ac1fbfff06b8cE>
  205bf2:	48 89 44 24 08       	mov    QWORD PTR [rsp+0x8],rax
  205bf7:	48 8b 74 24 10       	mov    rsi,QWORD PTR [rsp+0x10]
  205bfc:	48 8b 7c 24 08       	mov    rdi,QWORD PTR [rsp+0x8]
  205c01:	e8 1a a0 00 00       	call   20fc20 <_ZN4core3ptr31_$LT$impl$u20$$BP$mut$u20$T$GT$3add17ha7dedcd58ac1fd04E>
  205c06:	48 89 04 24          	mov    QWORD PTR [rsp],rax
  205c0a:	48 8b 04 24          	mov    rax,QWORD PTR [rsp]
  205c0e:	48 83 c4 28          	add    rsp,0x28
  205c12:	c3                   	ret    
  205c13:	cc                   	int3   
  205c14:	cc                   	int3   
  205c15:	cc                   	int3   
  205c16:	cc                   	int3   
  205c17:	cc                   	int3   
  205c18:	cc                   	int3   
  205c19:	cc                   	int3   
  205c1a:	cc                   	int3   
  205c1b:	cc                   	int3   
  205c1c:	cc                   	int3   
  205c1d:	cc                   	int3   
  205c1e:	cc                   	int3   
  205c1f:	cc                   	int3   

0000000000205c20 <_ZN91_$LT$core..slice..Iter$LT$$u27$a$C$$u20$T$GT$$u20$as$u20$core..iter..iterator..Iterator$GT$4next17h6302a1ac5b024adfE>:
  205c20:	48 83 ec 58          	sub    rsp,0x58
  205c24:	48 89 7c 24 28       	mov    QWORD PTR [rsp+0x28],rdi
  205c29:	48 8b 7c 24 28       	mov    rdi,QWORD PTR [rsp+0x28]
  205c2e:	48 8b 3f             	mov    rdi,QWORD PTR [rdi]
  205c31:	e8 3a f6 ff ff       	call   205270 <_ZN4core3ptr33_$LT$impl$u20$$BP$const$u20$T$GT$7is_null17h8209e73775f1e616E>
  205c36:	88 44 24 27          	mov    BYTE PTR [rsp+0x27],al
  205c3a:	e8 d1 9a 00 00       	call   20f710 <_ZN4core3mem7size_of17hae62eadc2e6cab41E>
  205c3f:	48 89 44 24 18       	mov    QWORD PTR [rsp+0x18],rax
  205c44:	48 8b 44 24 18       	mov    rax,QWORD PTR [rsp+0x18]
  205c49:	48 83 f8 00          	cmp    rax,0x0
  205c4d:	74 14                	je     205c63 <_ZN91_$LT$core..slice..Iter$LT$$u27$a$C$$u20$T$GT$$u20$as$u20$core..iter..iterator..Iterator$GT$4next17h6302a1ac5b024adfE+0x43>
  205c4f:	48 8b 44 24 28       	mov    rax,QWORD PTR [rsp+0x28]
  205c54:	48 8b 78 08          	mov    rdi,QWORD PTR [rax+0x8]
  205c58:	e8 13 f6 ff ff       	call   205270 <_ZN4core3ptr33_$LT$impl$u20$$BP$const$u20$T$GT$7is_null17h8209e73775f1e616E>
  205c5d:	88 44 24 17          	mov    BYTE PTR [rsp+0x17],al
  205c61:	eb 00                	jmp    205c63 <_ZN91_$LT$core..slice..Iter$LT$$u27$a$C$$u20$T$GT$$u20$as$u20$core..iter..iterator..Iterator$GT$4next17h6302a1ac5b024adfE+0x43>
  205c63:	48 8b 44 24 28       	mov    rax,QWORD PTR [rsp+0x28]
  205c68:	48 8b 00             	mov    rax,QWORD PTR [rax]
  205c6b:	48 8b 4c 24 28       	mov    rcx,QWORD PTR [rsp+0x28]
  205c70:	48 3b 41 08          	cmp    rax,QWORD PTR [rcx+0x8]
  205c74:	75 0e                	jne    205c84 <_ZN91_$LT$core..slice..Iter$LT$$u27$a$C$$u20$T$GT$$u20$as$u20$core..iter..iterator..Iterator$GT$4next17h6302a1ac5b024adfE+0x64>
  205c76:	48 c7 44 24 30 00 00 	mov    QWORD PTR [rsp+0x30],0x0
  205c7d:	00 00 
  205c7f:	e9 95 00 00 00       	jmp    205d19 <_ZN91_$LT$core..slice..Iter$LT$$u27$a$C$$u20$T$GT$$u20$as$u20$core..iter..iterator..Iterator$GT$4next17h6302a1ac5b024adfE+0xf9>
  205c84:	48 8b 44 24 28       	mov    rax,QWORD PTR [rsp+0x28]
  205c89:	48 89 44 24 38       	mov    QWORD PTR [rsp+0x38],rax
  205c8e:	48 c7 44 24 40 01 00 	mov    QWORD PTR [rsp+0x40],0x1
  205c95:	00 00 
  205c97:	e8 74 9a 00 00       	call   20f710 <_ZN4core3mem7size_of17hae62eadc2e6cab41E>
  205c9c:	48 83 f8 00          	cmp    rax,0x0
  205ca0:	75 32                	jne    205cd4 <_ZN91_$LT$core..slice..Iter$LT$$u27$a$C$$u20$T$GT$$u20$as$u20$core..iter..iterator..Iterator$GT$4next17h6302a1ac5b024adfE+0xb4>
  205ca2:	31 c0                	xor    eax,eax
  205ca4:	89 c1                	mov    ecx,eax
  205ca6:	48 8b 54 24 38       	mov    rdx,QWORD PTR [rsp+0x38]
  205cab:	48 8b 7a 08          	mov    rdi,QWORD PTR [rdx+0x8]
  205caf:	48 2b 4c 24 40       	sub    rcx,QWORD PTR [rsp+0x40]
  205cb4:	48 89 ce             	mov    rsi,rcx
  205cb7:	e8 f4 9f 00 00       	call   20fcb0 <_ZN4core3ptr33_$LT$impl$u20$$BP$const$u20$T$GT$15wrapping_offset17hdc7a0983597c1ad6E>
  205cbc:	48 8b 4c 24 38       	mov    rcx,QWORD PTR [rsp+0x38]
  205cc1:	48 89 41 08          	mov    QWORD PTR [rcx+0x8],rax
  205cc5:	48 8b 44 24 38       	mov    rax,QWORD PTR [rsp+0x38]
  205cca:	48 8b 00             	mov    rax,QWORD PTR [rax]
  205ccd:	48 89 44 24 48       	mov    QWORD PTR [rsp+0x48],rax
  205cd2:	eb 31                	jmp    205d05 <_ZN91_$LT$core..slice..Iter$LT$$u27$a$C$$u20$T$GT$$u20$as$u20$core..iter..iterator..Iterator$GT$4next17h6302a1ac5b024adfE+0xe5>
  205cd4:	48 8b 44 24 38       	mov    rax,QWORD PTR [rsp+0x38]
  205cd9:	48 8b 00             	mov    rax,QWORD PTR [rax]
  205cdc:	48 89 44 24 50       	mov    QWORD PTR [rsp+0x50],rax
  205ce1:	48 8b 44 24 38       	mov    rax,QWORD PTR [rsp+0x38]
  205ce6:	48 8b 38             	mov    rdi,QWORD PTR [rax]
  205ce9:	48 8b 74 24 40       	mov    rsi,QWORD PTR [rsp+0x40]
  205cee:	e8 4d f5 ff ff       	call   205240 <_ZN4core3ptr33_$LT$impl$u20$$BP$const$u20$T$GT$6offset17hdb2c0103386ce910E>
  205cf3:	48 8b 74 24 38       	mov    rsi,QWORD PTR [rsp+0x38]
  205cf8:	48 89 06             	mov    QWORD PTR [rsi],rax
  205cfb:	48 8b 44 24 50       	mov    rax,QWORD PTR [rsp+0x50]
  205d00:	48 89 44 24 48       	mov    QWORD PTR [rsp+0x48],rax
  205d05:	48 8b 44 24 48       	mov    rax,QWORD PTR [rsp+0x48]
  205d0a:	48 89 44 24 08       	mov    QWORD PTR [rsp+0x8],rax
  205d0f:	48 8b 44 24 08       	mov    rax,QWORD PTR [rsp+0x8]
  205d14:	48 89 44 24 30       	mov    QWORD PTR [rsp+0x30],rax
  205d19:	48 8b 44 24 30       	mov    rax,QWORD PTR [rsp+0x30]
  205d1e:	48 83 c4 58          	add    rsp,0x58
  205d22:	c3                   	ret    
  205d23:	cc                   	int3   
  205d24:	cc                   	int3   
  205d25:	cc                   	int3   
  205d26:	cc                   	int3   
  205d27:	cc                   	int3   
  205d28:	cc                   	int3   
  205d29:	cc                   	int3   
  205d2a:	cc                   	int3   
  205d2b:	cc                   	int3   
  205d2c:	cc                   	int3   
  205d2d:	cc                   	int3   
  205d2e:	cc                   	int3   
  205d2f:	cc                   	int3   

0000000000205d30 <_ZN91_$LT$core..slice..Iter$LT$$u27$a$C$$u20$T$GT$$u20$as$u20$core..iter..iterator..Iterator$GT$8position17h1c478761be721db8E>:
  205d30:	48 81 ec 88 00 00 00 	sub    rsp,0x88
  205d37:	48 89 7c 24 40       	mov    QWORD PTR [rsp+0x40],rdi
  205d3c:	48 8b 7c 24 40       	mov    rdi,QWORD PTR [rsp+0x40]
  205d41:	48 8b 3f             	mov    rdi,QWORD PTR [rdi]
  205d44:	48 89 7c 24 58       	mov    QWORD PTR [rsp+0x58],rdi
  205d49:	48 8b 7c 24 40       	mov    rdi,QWORD PTR [rsp+0x40]
  205d4e:	48 8b 7f 08          	mov    rdi,QWORD PTR [rdi+0x8]
  205d52:	48 8b 74 24 58       	mov    rsi,QWORD PTR [rsp+0x58]
  205d57:	e8 64 e4 ff ff       	call   2041c0 <_ZN4core3num23_$LT$impl$u20$usize$GT$12wrapping_sub17h1a7ceec981b445e5E>
  205d5c:	48 89 44 24 60       	mov    QWORD PTR [rsp+0x60],rax
  205d61:	48 8b 44 24 58       	mov    rax,QWORD PTR [rsp+0x58]
  205d66:	48 89 84 24 80 00 00 	mov    QWORD PTR [rsp+0x80],rax
  205d6d:	00 
  205d6e:	e8 4d 2f 00 00       	call   208cc0 <_ZN4core3mem7size_of17h6f5af54ef52dbc4eE>
  205d73:	48 89 44 24 68       	mov    QWORD PTR [rsp+0x68],rax
  205d78:	48 83 7c 24 68 00    	cmp    QWORD PTR [rsp+0x68],0x0
  205d7e:	75 0c                	jne    205d8c <_ZN91_$LT$core..slice..Iter$LT$$u27$a$C$$u20$T$GT$$u20$as$u20$core..iter..iterator..Iterator$GT$8position17h1c478761be721db8E+0x5c>
  205d80:	48 8b 44 24 60       	mov    rax,QWORD PTR [rsp+0x60]
  205d85:	48 89 44 24 50       	mov    QWORD PTR [rsp+0x50],rax
  205d8a:	eb 36                	jmp    205dc2 <_ZN91_$LT$core..slice..Iter$LT$$u27$a$C$$u20$T$GT$$u20$as$u20$core..iter..iterator..Iterator$GT$8position17h1c478761be721db8E+0x92>
  205d8c:	48 8b 44 24 60       	mov    rax,QWORD PTR [rsp+0x60]
  205d91:	48 8b 4c 24 68       	mov    rcx,QWORD PTR [rsp+0x68]
  205d96:	48 83 f9 00          	cmp    rcx,0x0
  205d9a:	0f 94 c2             	sete   dl
  205d9d:	f6 c2 01             	test   dl,0x1
  205da0:	48 89 44 24 38       	mov    QWORD PTR [rsp+0x38],rax
  205da5:	48 89 4c 24 30       	mov    QWORD PTR [rsp+0x30],rcx
  205daa:	75 7f                	jne    205e2b <_ZN91_$LT$core..slice..Iter$LT$$u27$a$C$$u20$T$GT$$u20$as$u20$core..iter..iterator..Iterator$GT$8position17h1c478761be721db8E+0xfb>
  205dac:	48 8b 44 24 38       	mov    rax,QWORD PTR [rsp+0x38]
  205db1:	31 c9                	xor    ecx,ecx
  205db3:	89 ca                	mov    edx,ecx
  205db5:	48 8b 74 24 30       	mov    rsi,QWORD PTR [rsp+0x30]
  205dba:	48 f7 f6             	div    rsi
  205dbd:	48 89 44 24 50       	mov    QWORD PTR [rsp+0x50],rax
  205dc2:	31 c0                	xor    eax,eax
  205dc4:	89 c6                	mov    esi,eax
  205dc6:	48 8b 7c 24 40       	mov    rdi,QWORD PTR [rsp+0x40]
  205dcb:	e8 10 01 00 00       	call   205ee0 <_ZN91_$LT$core..slice..Iter$LT$$u27$a$C$$u20$T$GT$$u20$as$u20$core..iter..iterator..Iterator$GT$8try_fold17h968060b309527bb6E>
  205dd0:	48 89 44 24 28       	mov    QWORD PTR [rsp+0x28],rax
  205dd5:	48 89 54 24 20       	mov    QWORD PTR [rsp+0x20],rdx
  205dda:	48 8b 7c 24 28       	mov    rdi,QWORD PTR [rsp+0x28]
  205ddf:	48 8b 74 24 20       	mov    rsi,QWORD PTR [rsp+0x20]
  205de4:	e8 f7 99 00 00       	call   20f7e0 <_ZN47_$LT$core..result..Result$LT$T$C$$u20$E$GT$$GT$3err17hc33f924c3758c26aE>
  205de9:	48 89 44 24 18       	mov    QWORD PTR [rsp+0x18],rax
  205dee:	48 89 54 24 10       	mov    QWORD PTR [rsp+0x10],rdx
  205df3:	48 8d 44 24 50       	lea    rax,[rsp+0x50]
  205df8:	48 89 44 24 78       	mov    QWORD PTR [rsp+0x78],rax
  205dfd:	48 8b 54 24 78       	mov    rdx,QWORD PTR [rsp+0x78]
  205e02:	48 8b 7c 24 18       	mov    rdi,QWORD PTR [rsp+0x18]
  205e07:	48 8b 74 24 10       	mov    rsi,QWORD PTR [rsp+0x10]
  205e0c:	e8 4f d7 ff ff       	call   203560 <_ZN38_$LT$core..option..Option$LT$T$GT$$GT$3map17hf85e69033fa78cb8E>
  205e11:	48 89 44 24 08       	mov    QWORD PTR [rsp+0x8],rax
  205e16:	48 89 14 24          	mov    QWORD PTR [rsp],rdx
  205e1a:	48 8b 44 24 08       	mov    rax,QWORD PTR [rsp+0x8]
  205e1f:	48 8b 14 24          	mov    rdx,QWORD PTR [rsp]
  205e23:	48 81 c4 88 00 00 00 	add    rsp,0x88
  205e2a:	c3                   	ret    
  205e2b:	48 8d 3d ce 16 01 00 	lea    rdi,[rip+0x116ce]        # 217500 <_ZN11rust_kernel3vga6writer6WRITER17h25e0541f3f3878f2E+0x14d0>
  205e32:	e8 99 e2 00 00       	call   2140d0 <_ZN4core9panicking5panic17h8e7eea3eb5c7908eE>
  205e37:	0f 0b                	ud2    
  205e39:	cc                   	int3   
  205e3a:	cc                   	int3   
  205e3b:	cc                   	int3   
  205e3c:	cc                   	int3   
  205e3d:	cc                   	int3   
  205e3e:	cc                   	int3   
  205e3f:	cc                   	int3   

0000000000205e40 <_ZN91_$LT$core..slice..Iter$LT$$u27$a$C$$u20$T$GT$$u20$as$u20$core..iter..iterator..Iterator$GT$8position28_$u7b$$u7b$closure$u7d$$u7d$17h57d22e86c4e5b215E>:
  205e40:	48 83 ec 10          	sub    rsp,0x10
  205e44:	48 89 3c 24          	mov    QWORD PTR [rsp],rdi
  205e48:	48 89 74 24 08       	mov    QWORD PTR [rsp+0x8],rsi
  205e4d:	48 8b 44 24 08       	mov    rax,QWORD PTR [rsp+0x8]
  205e52:	48 83 c4 10          	add    rsp,0x10
  205e56:	c3                   	ret    
  205e57:	cc                   	int3   
  205e58:	cc                   	int3   
  205e59:	cc                   	int3   
  205e5a:	cc                   	int3   
  205e5b:	cc                   	int3   
  205e5c:	cc                   	int3   
  205e5d:	cc                   	int3   
  205e5e:	cc                   	int3   
  205e5f:	cc                   	int3   

0000000000205e60 <_ZN91_$LT$core..slice..Iter$LT$$u27$a$C$$u20$T$GT$$u20$as$u20$core..iter..iterator..Iterator$GT$8position28_$u7b$$u7b$closure$u7d$$u7d$17h62850dec954c7bb8E>:
  205e60:	48 83 ec 38          	sub    rsp,0x38
  205e64:	48 89 7c 24 08       	mov    QWORD PTR [rsp+0x8],rdi
  205e69:	48 89 74 24 10       	mov    QWORD PTR [rsp+0x10],rsi
  205e6e:	48 89 54 24 18       	mov    QWORD PTR [rsp+0x18],rdx
  205e73:	48 8b 54 24 08       	mov    rdx,QWORD PTR [rsp+0x8]
  205e78:	48 8b 74 24 18       	mov    rsi,QWORD PTR [rsp+0x18]
  205e7d:	48 89 74 24 30       	mov    QWORD PTR [rsp+0x30],rsi
  205e82:	48 8b 74 24 30       	mov    rsi,QWORD PTR [rsp+0x30]
  205e87:	48 89 d7             	mov    rdi,rdx
  205e8a:	e8 e1 2a 00 00       	call   208970 <_ZN4core3ops8function5FnMut8call_mut17h519eba5d60911f80E>
  205e8f:	88 44 24 07          	mov    BYTE PTR [rsp+0x7],al
  205e93:	8a 44 24 07          	mov    al,BYTE PTR [rsp+0x7]
  205e97:	a8 01                	test   al,0x1
  205e99:	75 02                	jne    205e9d <_ZN91_$LT$core..slice..Iter$LT$$u27$a$C$$u20$T$GT$$u20$as$u20$core..iter..iterator..Iterator$GT$8position28_$u7b$$u7b$closure$u7d$$u7d$17h62850dec954c7bb8E+0x3d>
  205e9b:	eb 15                	jmp    205eb2 <_ZN91_$LT$core..slice..Iter$LT$$u27$a$C$$u20$T$GT$$u20$as$u20$core..iter..iterator..Iterator$GT$8position28_$u7b$$u7b$closure$u7d$$u7d$17h62850dec954c7bb8E+0x52>
  205e9d:	48 8b 44 24 10       	mov    rax,QWORD PTR [rsp+0x10]
  205ea2:	48 89 44 24 28       	mov    QWORD PTR [rsp+0x28],rax
  205ea7:	48 c7 44 24 20 01 00 	mov    QWORD PTR [rsp+0x20],0x1
  205eae:	00 00 
  205eb0:	eb 17                	jmp    205ec9 <_ZN91_$LT$core..slice..Iter$LT$$u27$a$C$$u20$T$GT$$u20$as$u20$core..iter..iterator..Iterator$GT$8position28_$u7b$$u7b$closure$u7d$$u7d$17h62850dec954c7bb8E+0x69>
  205eb2:	48 8b 44 24 10       	mov    rax,QWORD PTR [rsp+0x10]
  205eb7:	48 83 c0 01          	add    rax,0x1
  205ebb:	48 89 44 24 28       	mov    QWORD PTR [rsp+0x28],rax
  205ec0:	48 c7 44 24 20 00 00 	mov    QWORD PTR [rsp+0x20],0x0
  205ec7:	00 00 
  205ec9:	48 8b 44 24 20       	mov    rax,QWORD PTR [rsp+0x20]
  205ece:	48 8b 54 24 28       	mov    rdx,QWORD PTR [rsp+0x28]
  205ed3:	48 83 c4 38          	add    rsp,0x38
  205ed7:	c3                   	ret    
  205ed8:	cc                   	int3   
  205ed9:	cc                   	int3   
  205eda:	cc                   	int3   
  205edb:	cc                   	int3   
  205edc:	cc                   	int3   
  205edd:	cc                   	int3   
  205ede:	cc                   	int3   
  205edf:	cc                   	int3   

0000000000205ee0 <_ZN91_$LT$core..slice..Iter$LT$$u27$a$C$$u20$T$GT$$u20$as$u20$core..iter..iterator..Iterator$GT$8try_fold17h968060b309527bb6E>:
  205ee0:	48 81 ec 28 03 00 00 	sub    rsp,0x328
  205ee7:	48 89 bc 24 f8 00 00 	mov    QWORD PTR [rsp+0xf8],rdi
  205eee:	00 
  205eef:	48 89 b4 24 00 01 00 	mov    QWORD PTR [rsp+0x100],rsi
  205ef6:	00 
  205ef7:	48 8b b4 24 00 01 00 	mov    rsi,QWORD PTR [rsp+0x100]
  205efe:	00 
  205eff:	48 89 b4 24 20 01 00 	mov    QWORD PTR [rsp+0x120],rsi
  205f06:	00 
  205f07:	48 8b 84 24 f8 00 00 	mov    rax,QWORD PTR [rsp+0xf8]
  205f0e:	00 
  205f0f:	48 8b 00             	mov    rax,QWORD PTR [rax]
  205f12:	48 89 84 24 30 01 00 	mov    QWORD PTR [rsp+0x130],rax
  205f19:	00 
  205f1a:	48 8b 84 24 f8 00 00 	mov    rax,QWORD PTR [rsp+0xf8]
  205f21:	00 
  205f22:	48 8b 78 08          	mov    rdi,QWORD PTR [rax+0x8]
  205f26:	48 8b b4 24 30 01 00 	mov    rsi,QWORD PTR [rsp+0x130]
  205f2d:	00 
  205f2e:	e8 8d e2 ff ff       	call   2041c0 <_ZN4core3num23_$LT$impl$u20$usize$GT$12wrapping_sub17h1a7ceec981b445e5E>
  205f33:	48 89 84 24 38 01 00 	mov    QWORD PTR [rsp+0x138],rax
  205f3a:	00 
  205f3b:	eb 05                	jmp    205f42 <_ZN91_$LT$core..slice..Iter$LT$$u27$a$C$$u20$T$GT$$u20$as$u20$core..iter..iterator..Iterator$GT$8try_fold17h968060b309527bb6E+0x62>
  205f3d:	e9 15 06 00 00       	jmp    206557 <_ZN91_$LT$core..slice..Iter$LT$$u27$a$C$$u20$T$GT$$u20$as$u20$core..iter..iterator..Iterator$GT$8try_fold17h968060b309527bb6E+0x677>
  205f42:	48 8b 84 24 30 01 00 	mov    rax,QWORD PTR [rsp+0x130]
  205f49:	00 
  205f4a:	48 89 84 24 80 02 00 	mov    QWORD PTR [rsp+0x280],rax
  205f51:	00 
  205f52:	e8 69 2d 00 00       	call   208cc0 <_ZN4core3mem7size_of17h6f5af54ef52dbc4eE>
  205f57:	48 89 84 24 40 01 00 	mov    QWORD PTR [rsp+0x140],rax
  205f5e:	00 
  205f5f:	48 83 bc 24 40 01 00 	cmp    QWORD PTR [rsp+0x140],0x0
  205f66:	00 00 
  205f68:	75 12                	jne    205f7c <_ZN91_$LT$core..slice..Iter$LT$$u27$a$C$$u20$T$GT$$u20$as$u20$core..iter..iterator..Iterator$GT$8try_fold17h968060b309527bb6E+0x9c>
  205f6a:	48 8b 84 24 38 01 00 	mov    rax,QWORD PTR [rsp+0x138]
  205f71:	00 
  205f72:	48 89 84 24 28 01 00 	mov    QWORD PTR [rsp+0x128],rax
  205f79:	00 
  205f7a:	eb 4f                	jmp    205fcb <_ZN91_$LT$core..slice..Iter$LT$$u27$a$C$$u20$T$GT$$u20$as$u20$core..iter..iterator..Iterator$GT$8try_fold17h968060b309527bb6E+0xeb>
  205f7c:	48 8b 84 24 38 01 00 	mov    rax,QWORD PTR [rsp+0x138]
  205f83:	00 
  205f84:	48 8b 8c 24 40 01 00 	mov    rcx,QWORD PTR [rsp+0x140]
  205f8b:	00 
  205f8c:	48 83 f9 00          	cmp    rcx,0x0
  205f90:	0f 94 c2             	sete   dl
  205f93:	f6 c2 01             	test   dl,0x1
  205f96:	48 89 84 24 f0 00 00 	mov    QWORD PTR [rsp+0xf0],rax
  205f9d:	00 
  205f9e:	48 89 8c 24 e8 00 00 	mov    QWORD PTR [rsp+0xe8],rcx
  205fa5:	00 
  205fa6:	0f 85 bc 0a 00 00    	jne    206a68 <_ZN91_$LT$core..slice..Iter$LT$$u27$a$C$$u20$T$GT$$u20$as$u20$core..iter..iterator..Iterator$GT$8try_fold17h968060b309527bb6E+0xb88>
  205fac:	48 8b 84 24 f0 00 00 	mov    rax,QWORD PTR [rsp+0xf0]
  205fb3:	00 
  205fb4:	31 c9                	xor    ecx,ecx
  205fb6:	89 ca                	mov    edx,ecx
  205fb8:	48 8b b4 24 e8 00 00 	mov    rsi,QWORD PTR [rsp+0xe8]
  205fbf:	00 
  205fc0:	48 f7 f6             	div    rsi
  205fc3:	48 89 84 24 28 01 00 	mov    QWORD PTR [rsp+0x128],rax
  205fca:	00 
  205fcb:	48 83 bc 24 28 01 00 	cmp    QWORD PTR [rsp+0x128],0x4
  205fd2:	00 04 
  205fd4:	0f 82 63 ff ff ff    	jb     205f3d <_ZN91_$LT$core..slice..Iter$LT$$u27$a$C$$u20$T$GT$$u20$as$u20$core..iter..iterator..Iterator$GT$8try_fold17h968060b309527bb6E+0x5d>
  205fda:	48 8b 84 24 20 01 00 	mov    rax,QWORD PTR [rsp+0x120]
  205fe1:	00 
  205fe2:	48 8b 8c 24 f8 00 00 	mov    rcx,QWORD PTR [rsp+0xf8]
  205fe9:	00 
  205fea:	48 89 8c 24 88 02 00 	mov    QWORD PTR [rsp+0x288],rcx
  205ff1:	00 
  205ff2:	48 c7 84 24 90 02 00 	mov    QWORD PTR [rsp+0x290],0x1
  205ff9:	00 01 00 00 00 
  205ffe:	48 89 84 24 e0 00 00 	mov    QWORD PTR [rsp+0xe0],rax
  206005:	00 
  206006:	e8 b5 2c 00 00       	call   208cc0 <_ZN4core3mem7size_of17h6f5af54ef52dbc4eE>
  20600b:	48 83 f8 00          	cmp    rax,0x0
  20600f:	75 44                	jne    206055 <_ZN91_$LT$core..slice..Iter$LT$$u27$a$C$$u20$T$GT$$u20$as$u20$core..iter..iterator..Iterator$GT$8try_fold17h968060b309527bb6E+0x175>
  206011:	31 c0                	xor    eax,eax
  206013:	89 c1                	mov    ecx,eax
  206015:	48 8b 94 24 88 02 00 	mov    rdx,QWORD PTR [rsp+0x288]
  20601c:	00 
  20601d:	48 8b 52 08          	mov    rdx,QWORD PTR [rdx+0x8]
  206021:	48 2b 8c 24 90 02 00 	sub    rcx,QWORD PTR [rsp+0x290]
  206028:	00 
  206029:	48 89 d7             	mov    rdi,rdx
  20602c:	48 89 ce             	mov    rsi,rcx
  20602f:	e8 7c 9c 00 00       	call   20fcb0 <_ZN4core3ptr33_$LT$impl$u20$$BP$const$u20$T$GT$15wrapping_offset17hdc7a0983597c1ad6E>
  206034:	48 8b 8c 24 88 02 00 	mov    rcx,QWORD PTR [rsp+0x288]
  20603b:	00 
  20603c:	48 89 41 08          	mov    QWORD PTR [rcx+0x8],rax
  206040:	48 8b 84 24 88 02 00 	mov    rax,QWORD PTR [rsp+0x288]
  206047:	00 
  206048:	48 8b 00             	mov    rax,QWORD PTR [rax]
  20604b:	48 89 84 24 98 02 00 	mov    QWORD PTR [rsp+0x298],rax
  206052:	00 
  206053:	eb 46                	jmp    20609b <_ZN91_$LT$core..slice..Iter$LT$$u27$a$C$$u20$T$GT$$u20$as$u20$core..iter..iterator..Iterator$GT$8try_fold17h968060b309527bb6E+0x1bb>
  206055:	48 8b 84 24 88 02 00 	mov    rax,QWORD PTR [rsp+0x288]
  20605c:	00 
  20605d:	48 8b 00             	mov    rax,QWORD PTR [rax]
  206060:	48 89 84 24 a0 02 00 	mov    QWORD PTR [rsp+0x2a0],rax
  206067:	00 
  206068:	48 8b 84 24 88 02 00 	mov    rax,QWORD PTR [rsp+0x288]
  20606f:	00 
  206070:	48 8b 38             	mov    rdi,QWORD PTR [rax]
  206073:	48 8b b4 24 90 02 00 	mov    rsi,QWORD PTR [rsp+0x290]
  20607a:	00 
  20607b:	e8 10 12 00 00       	call   207290 <_ZN4core3ptr33_$LT$impl$u20$$BP$const$u20$T$GT$6offset17hd29c50b20b8cdcc3E>
  206080:	48 8b b4 24 88 02 00 	mov    rsi,QWORD PTR [rsp+0x288]
  206087:	00 
  206088:	48 89 06             	mov    QWORD PTR [rsi],rax
  20608b:	48 8b 84 24 a0 02 00 	mov    rax,QWORD PTR [rsp+0x2a0]
  206092:	00 
  206093:	48 89 84 24 98 02 00 	mov    QWORD PTR [rsp+0x298],rax
  20609a:	00 
  20609b:	48 8b 84 24 98 02 00 	mov    rax,QWORD PTR [rsp+0x298]
  2060a2:	00 
  2060a3:	48 89 84 24 d8 00 00 	mov    QWORD PTR [rsp+0xd8],rax
  2060aa:	00 
  2060ab:	48 8b 84 24 e0 00 00 	mov    rax,QWORD PTR [rsp+0xe0]
  2060b2:	00 
  2060b3:	48 89 84 24 58 01 00 	mov    QWORD PTR [rsp+0x158],rax
  2060ba:	00 
  2060bb:	48 8b 8c 24 d8 00 00 	mov    rcx,QWORD PTR [rsp+0xd8]
  2060c2:	00 
  2060c3:	48 89 8c 24 60 01 00 	mov    QWORD PTR [rsp+0x160],rcx
  2060ca:	00 
  2060cb:	48 8b b4 24 58 01 00 	mov    rsi,QWORD PTR [rsp+0x158]
  2060d2:	00 
  2060d3:	48 8b 94 24 60 01 00 	mov    rdx,QWORD PTR [rsp+0x160]
  2060da:	00 
  2060db:	48 8d bc 24 08 01 00 	lea    rdi,[rsp+0x108]
  2060e2:	00 
  2060e3:	e8 78 fd ff ff       	call   205e60 <_ZN91_$LT$core..slice..Iter$LT$$u27$a$C$$u20$T$GT$$u20$as$u20$core..iter..iterator..Iterator$GT$8position28_$u7b$$u7b$closure$u7d$$u7d$17h62850dec954c7bb8E>
  2060e8:	48 89 84 24 d0 00 00 	mov    QWORD PTR [rsp+0xd0],rax
  2060ef:	00 
  2060f0:	48 89 94 24 c8 00 00 	mov    QWORD PTR [rsp+0xc8],rdx
  2060f7:	00 
  2060f8:	48 8b bc 24 d0 00 00 	mov    rdi,QWORD PTR [rsp+0xd0]
  2060ff:	00 
  206100:	48 8b b4 24 c8 00 00 	mov    rsi,QWORD PTR [rsp+0xc8]
  206107:	00 
  206108:	e8 03 98 00 00       	call   20f910 <_ZN78_$LT$core..result..Result$LT$T$C$$u20$E$GT$$u20$as$u20$core..ops..try..Try$GT$11into_result17hfe856afa90db9746E>
  20610d:	48 89 94 24 50 01 00 	mov    QWORD PTR [rsp+0x150],rdx
  206114:	00 
  206115:	48 89 84 24 48 01 00 	mov    QWORD PTR [rsp+0x148],rax
  20611c:	00 
  20611d:	48 8b 84 24 48 01 00 	mov    rax,QWORD PTR [rsp+0x148]
  206124:	00 
  206125:	48 85 c0             	test   rax,rax
  206128:	48 89 84 24 c0 00 00 	mov    QWORD PTR [rsp+0xc0],rax
  20612f:	00 
  206130:	74 1c                	je     20614e <_ZN91_$LT$core..slice..Iter$LT$$u27$a$C$$u20$T$GT$$u20$as$u20$core..iter..iterator..Iterator$GT$8try_fold17h968060b309527bb6E+0x26e>
  206132:	eb 00                	jmp    206134 <_ZN91_$LT$core..slice..Iter$LT$$u27$a$C$$u20$T$GT$$u20$as$u20$core..iter..iterator..Iterator$GT$8try_fold17h968060b309527bb6E+0x254>
  206134:	48 8b 84 24 c0 00 00 	mov    rax,QWORD PTR [rsp+0xc0]
  20613b:	00 
  20613c:	48 83 e8 01          	sub    rax,0x1
  206140:	48 89 84 24 b8 00 00 	mov    QWORD PTR [rsp+0xb8],rax
  206147:	00 
  206148:	74 38                	je     206182 <_ZN91_$LT$core..slice..Iter$LT$$u27$a$C$$u20$T$GT$$u20$as$u20$core..iter..iterator..Iterator$GT$8try_fold17h968060b309527bb6E+0x2a2>
  20614a:	eb 00                	jmp    20614c <_ZN91_$LT$core..slice..Iter$LT$$u27$a$C$$u20$T$GT$$u20$as$u20$core..iter..iterator..Iterator$GT$8try_fold17h968060b309527bb6E+0x26c>
  20614c:	0f 0b                	ud2    
  20614e:	48 8b 84 24 50 01 00 	mov    rax,QWORD PTR [rsp+0x150]
  206155:	00 
  206156:	48 89 84 24 70 01 00 	mov    QWORD PTR [rsp+0x170],rax
  20615d:	00 
  20615e:	48 8b 84 24 70 01 00 	mov    rax,QWORD PTR [rsp+0x170]
  206165:	00 
  206166:	48 89 84 24 20 01 00 	mov    QWORD PTR [rsp+0x120],rax
  20616d:	00 
  20616e:	48 83 bc 24 48 01 00 	cmp    QWORD PTR [rsp+0x148],0x0
  206175:	00 00 
  206177:	0f 84 00 06 00 00    	je     20677d <_ZN91_$LT$core..slice..Iter$LT$$u27$a$C$$u20$T$GT$$u20$as$u20$core..iter..iterator..Iterator$GT$8try_fold17h968060b309527bb6E+0x89d>
  20617d:	e9 e1 06 00 00       	jmp    206863 <_ZN91_$LT$core..slice..Iter$LT$$u27$a$C$$u20$T$GT$$u20$as$u20$core..iter..iterator..Iterator$GT$8try_fold17h968060b309527bb6E+0x983>
  206182:	48 8b 84 24 50 01 00 	mov    rax,QWORD PTR [rsp+0x150]
  206189:	00 
  20618a:	48 89 84 24 68 01 00 	mov    QWORD PTR [rsp+0x168],rax
  206191:	00 
  206192:	48 8b bc 24 68 01 00 	mov    rdi,QWORD PTR [rsp+0x168]
  206199:	00 
  20619a:	e8 01 96 00 00       	call   20f7a0 <_ZN50_$LT$T$u20$as$u20$core..convert..From$LT$T$GT$$GT$4from17h95e5a5bf7e6bf487E>
  20619f:	48 89 84 24 b0 00 00 	mov    QWORD PTR [rsp+0xb0],rax
  2061a6:	00 
  2061a7:	48 8b bc 24 b0 00 00 	mov    rdi,QWORD PTR [rsp+0xb0]
  2061ae:	00 
  2061af:	e8 2c 97 00 00       	call   20f8e0 <_ZN78_$LT$core..result..Result$LT$T$C$$u20$E$GT$$u20$as$u20$core..ops..try..Try$GT$10from_error17hd93f3c7a1ba8e02dE>
  2061b4:	48 89 94 24 18 01 00 	mov    QWORD PTR [rsp+0x118],rdx
  2061bb:	00 
  2061bc:	48 89 84 24 10 01 00 	mov    QWORD PTR [rsp+0x110],rax
  2061c3:	00 
  2061c4:	48 83 bc 24 48 01 00 	cmp    QWORD PTR [rsp+0x148],0x0
  2061cb:	00 00 
  2061cd:	0f 84 a8 05 00 00    	je     20677b <_ZN91_$LT$core..slice..Iter$LT$$u27$a$C$$u20$T$GT$$u20$as$u20$core..iter..iterator..Iterator$GT$8try_fold17h968060b309527bb6E+0x89b>
  2061d3:	e9 9e 05 00 00       	jmp    206776 <_ZN91_$LT$core..slice..Iter$LT$$u27$a$C$$u20$T$GT$$u20$as$u20$core..iter..iterator..Iterator$GT$8try_fold17h968060b309527bb6E+0x896>
  2061d8:	48 8b 84 24 10 01 00 	mov    rax,QWORD PTR [rsp+0x110]
  2061df:	00 
  2061e0:	48 8b 94 24 18 01 00 	mov    rdx,QWORD PTR [rsp+0x118]
  2061e7:	00 
  2061e8:	48 81 c4 28 03 00 00 	add    rsp,0x328
  2061ef:	c3                   	ret    
  2061f0:	eb 00                	jmp    2061f2 <_ZN91_$LT$core..slice..Iter$LT$$u27$a$C$$u20$T$GT$$u20$as$u20$core..iter..iterator..Iterator$GT$8try_fold17h968060b309527bb6E+0x312>
  2061f2:	eb e4                	jmp    2061d8 <_ZN91_$LT$core..slice..Iter$LT$$u27$a$C$$u20$T$GT$$u20$as$u20$core..iter..iterator..Iterator$GT$8try_fold17h968060b309527bb6E+0x2f8>
  2061f4:	48 8b 84 24 a8 01 00 	mov    rax,QWORD PTR [rsp+0x1a8]
  2061fb:	00 
  2061fc:	48 8b 8c 24 a0 01 00 	mov    rcx,QWORD PTR [rsp+0x1a0]
  206203:	00 
  206204:	48 89 8c 24 90 01 00 	mov    QWORD PTR [rsp+0x190],rcx
  20620b:	00 
  20620c:	48 89 84 24 98 01 00 	mov    QWORD PTR [rsp+0x198],rax
  206213:	00 
  206214:	48 8b bc 24 88 01 00 	mov    rdi,QWORD PTR [rsp+0x188]
  20621b:	00 
  20621c:	48 8b b4 24 90 01 00 	mov    rsi,QWORD PTR [rsp+0x190]
  206223:	00 
  206224:	48 8b 84 24 98 01 00 	mov    rax,QWORD PTR [rsp+0x198]
  20622b:	00 
  20622c:	48 89 c2             	mov    rdx,rax
  20622f:	e8 2c fc ff ff       	call   205e60 <_ZN91_$LT$core..slice..Iter$LT$$u27$a$C$$u20$T$GT$$u20$as$u20$core..iter..iterator..Iterator$GT$8position28_$u7b$$u7b$closure$u7d$$u7d$17h62850dec954c7bb8E>
  206234:	48 89 84 24 a8 00 00 	mov    QWORD PTR [rsp+0xa8],rax
  20623b:	00 
  20623c:	48 89 94 24 a0 00 00 	mov    QWORD PTR [rsp+0xa0],rdx
  206243:	00 
  206244:	48 8b bc 24 a8 00 00 	mov    rdi,QWORD PTR [rsp+0xa8]
  20624b:	00 
  20624c:	48 8b b4 24 a0 00 00 	mov    rsi,QWORD PTR [rsp+0xa0]
  206253:	00 
  206254:	e8 b7 96 00 00       	call   20f910 <_ZN78_$LT$core..result..Result$LT$T$C$$u20$E$GT$$u20$as$u20$core..ops..try..Try$GT$11into_result17hfe856afa90db9746E>
  206259:	48 89 94 24 80 01 00 	mov    QWORD PTR [rsp+0x180],rdx
  206260:	00 
  206261:	48 89 84 24 78 01 00 	mov    QWORD PTR [rsp+0x178],rax
  206268:	00 
  206269:	48 8b 84 24 78 01 00 	mov    rax,QWORD PTR [rsp+0x178]
  206270:	00 
  206271:	48 85 c0             	test   rax,rax
  206274:	48 89 84 24 98 00 00 	mov    QWORD PTR [rsp+0x98],rax
  20627b:	00 
  20627c:	74 1d                	je     20629b <_ZN91_$LT$core..slice..Iter$LT$$u27$a$C$$u20$T$GT$$u20$as$u20$core..iter..iterator..Iterator$GT$8try_fold17h968060b309527bb6E+0x3bb>
  20627e:	eb 00                	jmp    206280 <_ZN91_$LT$core..slice..Iter$LT$$u27$a$C$$u20$T$GT$$u20$as$u20$core..iter..iterator..Iterator$GT$8try_fold17h968060b309527bb6E+0x3a0>
  206280:	48 8b 84 24 98 00 00 	mov    rax,QWORD PTR [rsp+0x98]
  206287:	00 
  206288:	48 83 e8 01          	sub    rax,0x1
  20628c:	48 89 84 24 90 00 00 	mov    QWORD PTR [rsp+0x90],rax
  206293:	00 
  206294:	74 39                	je     2062cf <_ZN91_$LT$core..slice..Iter$LT$$u27$a$C$$u20$T$GT$$u20$as$u20$core..iter..iterator..Iterator$GT$8try_fold17h968060b309527bb6E+0x3ef>
  206296:	e9 b1 fe ff ff       	jmp    20614c <_ZN91_$LT$core..slice..Iter$LT$$u27$a$C$$u20$T$GT$$u20$as$u20$core..iter..iterator..Iterator$GT$8try_fold17h968060b309527bb6E+0x26c>
  20629b:	48 8b 84 24 80 01 00 	mov    rax,QWORD PTR [rsp+0x180]
  2062a2:	00 
  2062a3:	48 89 84 24 b8 01 00 	mov    QWORD PTR [rsp+0x1b8],rax
  2062aa:	00 
  2062ab:	48 8b 84 24 b8 01 00 	mov    rax,QWORD PTR [rsp+0x1b8]
  2062b2:	00 
  2062b3:	48 89 84 24 20 01 00 	mov    QWORD PTR [rsp+0x120],rax
  2062ba:	00 
  2062bb:	48 83 bc 24 78 01 00 	cmp    QWORD PTR [rsp+0x178],0x0
  2062c2:	00 00 
  2062c4:	0f 84 a5 05 00 00    	je     20686f <_ZN91_$LT$core..slice..Iter$LT$$u27$a$C$$u20$T$GT$$u20$as$u20$core..iter..iterator..Iterator$GT$8try_fold17h968060b309527bb6E+0x98f>
  2062ca:	e9 86 06 00 00       	jmp    206955 <_ZN91_$LT$core..slice..Iter$LT$$u27$a$C$$u20$T$GT$$u20$as$u20$core..iter..iterator..Iterator$GT$8try_fold17h968060b309527bb6E+0xa75>
  2062cf:	48 8b 84 24 80 01 00 	mov    rax,QWORD PTR [rsp+0x180]
  2062d6:	00 
  2062d7:	48 89 84 24 b0 01 00 	mov    QWORD PTR [rsp+0x1b0],rax
  2062de:	00 
  2062df:	48 8b bc 24 b0 01 00 	mov    rdi,QWORD PTR [rsp+0x1b0]
  2062e6:	00 
  2062e7:	e8 b4 94 00 00       	call   20f7a0 <_ZN50_$LT$T$u20$as$u20$core..convert..From$LT$T$GT$$GT$4from17h95e5a5bf7e6bf487E>
  2062ec:	48 89 84 24 88 00 00 	mov    QWORD PTR [rsp+0x88],rax
  2062f3:	00 
  2062f4:	48 8b bc 24 88 00 00 	mov    rdi,QWORD PTR [rsp+0x88]
  2062fb:	00 
  2062fc:	e8 df 95 00 00       	call   20f8e0 <_ZN78_$LT$core..result..Result$LT$T$C$$u20$E$GT$$u20$as$u20$core..ops..try..Try$GT$10from_error17hd93f3c7a1ba8e02dE>
  206301:	48 89 94 24 18 01 00 	mov    QWORD PTR [rsp+0x118],rdx
  206308:	00 
  206309:	48 89 84 24 10 01 00 	mov    QWORD PTR [rsp+0x110],rax
  206310:	00 
  206311:	48 83 bc 24 78 01 00 	cmp    QWORD PTR [rsp+0x178],0x0
  206318:	00 00 
  20631a:	0f 84 4d 05 00 00    	je     20686d <_ZN91_$LT$core..slice..Iter$LT$$u27$a$C$$u20$T$GT$$u20$as$u20$core..iter..iterator..Iterator$GT$8try_fold17h968060b309527bb6E+0x98d>
  206320:	e9 43 05 00 00       	jmp    206868 <_ZN91_$LT$core..slice..Iter$LT$$u27$a$C$$u20$T$GT$$u20$as$u20$core..iter..iterator..Iterator$GT$8try_fold17h968060b309527bb6E+0x988>
  206325:	48 8b 84 24 f0 01 00 	mov    rax,QWORD PTR [rsp+0x1f0]
  20632c:	00 
  20632d:	48 8b 8c 24 e8 01 00 	mov    rcx,QWORD PTR [rsp+0x1e8]
  206334:	00 
  206335:	48 89 8c 24 d8 01 00 	mov    QWORD PTR [rsp+0x1d8],rcx
  20633c:	00 
  20633d:	48 89 84 24 e0 01 00 	mov    QWORD PTR [rsp+0x1e0],rax
  206344:	00 
  206345:	48 8b bc 24 d0 01 00 	mov    rdi,QWORD PTR [rsp+0x1d0]
  20634c:	00 
  20634d:	48 8b b4 24 d8 01 00 	mov    rsi,QWORD PTR [rsp+0x1d8]
  206354:	00 
  206355:	48 8b 84 24 e0 01 00 	mov    rax,QWORD PTR [rsp+0x1e0]
  20635c:	00 
  20635d:	48 89 c2             	mov    rdx,rax
  206360:	e8 fb fa ff ff       	call   205e60 <_ZN91_$LT$core..slice..Iter$LT$$u27$a$C$$u20$T$GT$$u20$as$u20$core..iter..iterator..Iterator$GT$8position28_$u7b$$u7b$closure$u7d$$u7d$17h62850dec954c7bb8E>
  206365:	48 89 84 24 80 00 00 	mov    QWORD PTR [rsp+0x80],rax
  20636c:	00 
  20636d:	48 89 54 24 78       	mov    QWORD PTR [rsp+0x78],rdx
  206372:	48 8b bc 24 80 00 00 	mov    rdi,QWORD PTR [rsp+0x80]
  206379:	00 
  20637a:	48 8b 74 24 78       	mov    rsi,QWORD PTR [rsp+0x78]
  20637f:	e8 8c 95 00 00       	call   20f910 <_ZN78_$LT$core..result..Result$LT$T$C$$u20$E$GT$$u20$as$u20$core..ops..try..Try$GT$11into_result17hfe856afa90db9746E>
  206384:	48 89 94 24 c8 01 00 	mov    QWORD PTR [rsp+0x1c8],rdx
  20638b:	00 
  20638c:	48 89 84 24 c0 01 00 	mov    QWORD PTR [rsp+0x1c0],rax
  206393:	00 
  206394:	48 8b 84 24 c0 01 00 	mov    rax,QWORD PTR [rsp+0x1c0]
  20639b:	00 
  20639c:	48 85 c0             	test   rax,rax
  20639f:	48 89 44 24 70       	mov    QWORD PTR [rsp+0x70],rax
  2063a4:	74 17                	je     2063bd <_ZN91_$LT$core..slice..Iter$LT$$u27$a$C$$u20$T$GT$$u20$as$u20$core..iter..iterator..Iterator$GT$8try_fold17h968060b309527bb6E+0x4dd>
  2063a6:	eb 00                	jmp    2063a8 <_ZN91_$LT$core..slice..Iter$LT$$u27$a$C$$u20$T$GT$$u20$as$u20$core..iter..iterator..Iterator$GT$8try_fold17h968060b309527bb6E+0x4c8>
  2063a8:	48 8b 44 24 70       	mov    rax,QWORD PTR [rsp+0x70]
  2063ad:	48 83 e8 01          	sub    rax,0x1
  2063b1:	48 89 44 24 68       	mov    QWORD PTR [rsp+0x68],rax
  2063b6:	74 39                	je     2063f1 <_ZN91_$LT$core..slice..Iter$LT$$u27$a$C$$u20$T$GT$$u20$as$u20$core..iter..iterator..Iterator$GT$8try_fold17h968060b309527bb6E+0x511>
  2063b8:	e9 8f fd ff ff       	jmp    20614c <_ZN91_$LT$core..slice..Iter$LT$$u27$a$C$$u20$T$GT$$u20$as$u20$core..iter..iterator..Iterator$GT$8try_fold17h968060b309527bb6E+0x26c>
  2063bd:	48 8b 84 24 c8 01 00 	mov    rax,QWORD PTR [rsp+0x1c8]
  2063c4:	00 
  2063c5:	48 89 84 24 00 02 00 	mov    QWORD PTR [rsp+0x200],rax
  2063cc:	00 
  2063cd:	48 8b 84 24 00 02 00 	mov    rax,QWORD PTR [rsp+0x200]
  2063d4:	00 
  2063d5:	48 89 84 24 20 01 00 	mov    QWORD PTR [rsp+0x120],rax
  2063dc:	00 
  2063dd:	48 83 bc 24 c0 01 00 	cmp    QWORD PTR [rsp+0x1c0],0x0
  2063e4:	00 00 
  2063e6:	0f 84 75 05 00 00    	je     206961 <_ZN91_$LT$core..slice..Iter$LT$$u27$a$C$$u20$T$GT$$u20$as$u20$core..iter..iterator..Iterator$GT$8try_fold17h968060b309527bb6E+0xa81>
  2063ec:	e9 56 06 00 00       	jmp    206a47 <_ZN91_$LT$core..slice..Iter$LT$$u27$a$C$$u20$T$GT$$u20$as$u20$core..iter..iterator..Iterator$GT$8try_fold17h968060b309527bb6E+0xb67>
  2063f1:	48 8b 84 24 c8 01 00 	mov    rax,QWORD PTR [rsp+0x1c8]
  2063f8:	00 
  2063f9:	48 89 84 24 f8 01 00 	mov    QWORD PTR [rsp+0x1f8],rax
  206400:	00 
  206401:	48 8b bc 24 f8 01 00 	mov    rdi,QWORD PTR [rsp+0x1f8]
  206408:	00 
  206409:	e8 92 93 00 00       	call   20f7a0 <_ZN50_$LT$T$u20$as$u20$core..convert..From$LT$T$GT$$GT$4from17h95e5a5bf7e6bf487E>
  20640e:	48 89 44 24 60       	mov    QWORD PTR [rsp+0x60],rax
  206413:	48 8b 7c 24 60       	mov    rdi,QWORD PTR [rsp+0x60]
  206418:	e8 c3 94 00 00       	call   20f8e0 <_ZN78_$LT$core..result..Result$LT$T$C$$u20$E$GT$$u20$as$u20$core..ops..try..Try$GT$10from_error17hd93f3c7a1ba8e02dE>
  20641d:	48 89 94 24 18 01 00 	mov    QWORD PTR [rsp+0x118],rdx
  206424:	00 
  206425:	48 89 84 24 10 01 00 	mov    QWORD PTR [rsp+0x110],rax
  20642c:	00 
  20642d:	48 83 bc 24 c0 01 00 	cmp    QWORD PTR [rsp+0x1c0],0x0
  206434:	00 00 
  206436:	0f 84 23 05 00 00    	je     20695f <_ZN91_$LT$core..slice..Iter$LT$$u27$a$C$$u20$T$GT$$u20$as$u20$core..iter..iterator..Iterator$GT$8try_fold17h968060b309527bb6E+0xa7f>
  20643c:	e9 19 05 00 00       	jmp    20695a <_ZN91_$LT$core..slice..Iter$LT$$u27$a$C$$u20$T$GT$$u20$as$u20$core..iter..iterator..Iterator$GT$8try_fold17h968060b309527bb6E+0xa7a>
  206441:	48 8b 84 24 38 02 00 	mov    rax,QWORD PTR [rsp+0x238]
  206448:	00 
  206449:	48 8b 8c 24 30 02 00 	mov    rcx,QWORD PTR [rsp+0x230]
  206450:	00 
  206451:	48 89 8c 24 20 02 00 	mov    QWORD PTR [rsp+0x220],rcx
  206458:	00 
  206459:	48 89 84 24 28 02 00 	mov    QWORD PTR [rsp+0x228],rax
  206460:	00 
  206461:	48 8b bc 24 18 02 00 	mov    rdi,QWORD PTR [rsp+0x218]
  206468:	00 
  206469:	48 8b b4 24 20 02 00 	mov    rsi,QWORD PTR [rsp+0x220]
  206470:	00 
  206471:	48 8b 84 24 28 02 00 	mov    rax,QWORD PTR [rsp+0x228]
  206478:	00 
  206479:	48 89 c2             	mov    rdx,rax
  20647c:	e8 df f9 ff ff       	call   205e60 <_ZN91_$LT$core..slice..Iter$LT$$u27$a$C$$u20$T$GT$$u20$as$u20$core..iter..iterator..Iterator$GT$8position28_$u7b$$u7b$closure$u7d$$u7d$17h62850dec954c7bb8E>
  206481:	48 89 44 24 58       	mov    QWORD PTR [rsp+0x58],rax
  206486:	48 89 54 24 50       	mov    QWORD PTR [rsp+0x50],rdx
  20648b:	48 8b 7c 24 58       	mov    rdi,QWORD PTR [rsp+0x58]
  206490:	48 8b 74 24 50       	mov    rsi,QWORD PTR [rsp+0x50]
  206495:	e8 76 94 00 00       	call   20f910 <_ZN78_$LT$core..result..Result$LT$T$C$$u20$E$GT$$u20$as$u20$core..ops..try..Try$GT$11into_result17hfe856afa90db9746E>
  20649a:	48 89 94 24 10 02 00 	mov    QWORD PTR [rsp+0x210],rdx
  2064a1:	00 
  2064a2:	48 89 84 24 08 02 00 	mov    QWORD PTR [rsp+0x208],rax
  2064a9:	00 
  2064aa:	48 8b 84 24 08 02 00 	mov    rax,QWORD PTR [rsp+0x208]
  2064b1:	00 
  2064b2:	48 85 c0             	test   rax,rax
  2064b5:	48 89 44 24 48       	mov    QWORD PTR [rsp+0x48],rax
  2064ba:	74 17                	je     2064d3 <_ZN91_$LT$core..slice..Iter$LT$$u27$a$C$$u20$T$GT$$u20$as$u20$core..iter..iterator..Iterator$GT$8try_fold17h968060b309527bb6E+0x5f3>
  2064bc:	eb 00                	jmp    2064be <_ZN91_$LT$core..slice..Iter$LT$$u27$a$C$$u20$T$GT$$u20$as$u20$core..iter..iterator..Iterator$GT$8try_fold17h968060b309527bb6E+0x5de>
  2064be:	48 8b 44 24 48       	mov    rax,QWORD PTR [rsp+0x48]
  2064c3:	48 83 e8 01          	sub    rax,0x1
  2064c7:	48 89 44 24 40       	mov    QWORD PTR [rsp+0x40],rax
  2064cc:	74 39                	je     206507 <_ZN91_$LT$core..slice..Iter$LT$$u27$a$C$$u20$T$GT$$u20$as$u20$core..iter..iterator..Iterator$GT$8try_fold17h968060b309527bb6E+0x627>
  2064ce:	e9 79 fc ff ff       	jmp    20614c <_ZN91_$LT$core..slice..Iter$LT$$u27$a$C$$u20$T$GT$$u20$as$u20$core..iter..iterator..Iterator$GT$8try_fold17h968060b309527bb6E+0x26c>
  2064d3:	48 8b 84 24 10 02 00 	mov    rax,QWORD PTR [rsp+0x210]
  2064da:	00 
  2064db:	48 89 84 24 48 02 00 	mov    QWORD PTR [rsp+0x248],rax
  2064e2:	00 
  2064e3:	48 8b 84 24 48 02 00 	mov    rax,QWORD PTR [rsp+0x248]
  2064ea:	00 
  2064eb:	48 89 84 24 20 01 00 	mov    QWORD PTR [rsp+0x120],rax
  2064f2:	00 
  2064f3:	48 83 bc 24 08 02 00 	cmp    QWORD PTR [rsp+0x208],0x0
  2064fa:	00 00 
  2064fc:	0f 84 51 05 00 00    	je     206a53 <_ZN91_$LT$core..slice..Iter$LT$$u27$a$C$$u20$T$GT$$u20$as$u20$core..iter..iterator..Iterator$GT$8try_fold17h968060b309527bb6E+0xb73>
  206502:	e9 51 05 00 00       	jmp    206a58 <_ZN91_$LT$core..slice..Iter$LT$$u27$a$C$$u20$T$GT$$u20$as$u20$core..iter..iterator..Iterator$GT$8try_fold17h968060b309527bb6E+0xb78>
  206507:	48 8b 84 24 10 02 00 	mov    rax,QWORD PTR [rsp+0x210]
  20650e:	00 
  20650f:	48 89 84 24 40 02 00 	mov    QWORD PTR [rsp+0x240],rax
  206516:	00 
  206517:	48 8b bc 24 40 02 00 	mov    rdi,QWORD PTR [rsp+0x240]
  20651e:	00 
  20651f:	e8 7c 92 00 00       	call   20f7a0 <_ZN50_$LT$T$u20$as$u20$core..convert..From$LT$T$GT$$GT$4from17h95e5a5bf7e6bf487E>
  206524:	48 89 44 24 38       	mov    QWORD PTR [rsp+0x38],rax
  206529:	48 8b 7c 24 38       	mov    rdi,QWORD PTR [rsp+0x38]
  20652e:	e8 ad 93 00 00       	call   20f8e0 <_ZN78_$LT$core..result..Result$LT$T$C$$u20$E$GT$$u20$as$u20$core..ops..try..Try$GT$10from_error17hd93f3c7a1ba8e02dE>
  206533:	48 89 94 24 18 01 00 	mov    QWORD PTR [rsp+0x118],rdx
  20653a:	00 
  20653b:	48 89 84 24 10 01 00 	mov    QWORD PTR [rsp+0x110],rax
  206542:	00 
  206543:	48 83 bc 24 08 02 00 	cmp    QWORD PTR [rsp+0x208],0x0
  20654a:	00 00 
  20654c:	0f 84 ff 04 00 00    	je     206a51 <_ZN91_$LT$core..slice..Iter$LT$$u27$a$C$$u20$T$GT$$u20$as$u20$core..iter..iterator..Iterator$GT$8try_fold17h968060b309527bb6E+0xb71>
  206552:	e9 f5 04 00 00       	jmp    206a4c <_ZN91_$LT$core..slice..Iter$LT$$u27$a$C$$u20$T$GT$$u20$as$u20$core..iter..iterator..Iterator$GT$8try_fold17h968060b309527bb6E+0xb6c>
  206557:	48 8b 84 24 f8 00 00 	mov    rax,QWORD PTR [rsp+0xf8]
  20655e:	00 
  20655f:	48 8b 00             	mov    rax,QWORD PTR [rax]
  206562:	48 8b 8c 24 f8 00 00 	mov    rcx,QWORD PTR [rsp+0xf8]
  206569:	00 
  20656a:	48 3b 41 08          	cmp    rax,QWORD PTR [rcx+0x8]
  20656e:	0f 94 c2             	sete   dl
  206571:	80 f2 ff             	xor    dl,0xff
  206574:	f6 c2 01             	test   dl,0x1
  206577:	75 22                	jne    20659b <_ZN91_$LT$core..slice..Iter$LT$$u27$a$C$$u20$T$GT$$u20$as$u20$core..iter..iterator..Iterator$GT$8try_fold17h968060b309527bb6E+0x6bb>
  206579:	48 8b bc 24 20 01 00 	mov    rdi,QWORD PTR [rsp+0x120]
  206580:	00 
  206581:	e8 aa 93 00 00       	call   20f930 <_ZN78_$LT$core..result..Result$LT$T$C$$u20$E$GT$$u20$as$u20$core..ops..try..Try$GT$7from_ok17heffd3dbc58b48a6eE>
  206586:	48 89 94 24 18 01 00 	mov    QWORD PTR [rsp+0x118],rdx
  20658d:	00 
  20658e:	48 89 84 24 10 01 00 	mov    QWORD PTR [rsp+0x110],rax
  206595:	00 
  206596:	e9 d6 01 00 00       	jmp    206771 <_ZN91_$LT$core..slice..Iter$LT$$u27$a$C$$u20$T$GT$$u20$as$u20$core..iter..iterator..Iterator$GT$8try_fold17h968060b309527bb6E+0x891>
  20659b:	48 8b 84 24 20 01 00 	mov    rax,QWORD PTR [rsp+0x120]
  2065a2:	00 
  2065a3:	48 8b 8c 24 f8 00 00 	mov    rcx,QWORD PTR [rsp+0xf8]
  2065aa:	00 
  2065ab:	48 89 8c 24 a8 02 00 	mov    QWORD PTR [rsp+0x2a8],rcx
  2065b2:	00 
  2065b3:	48 c7 84 24 b0 02 00 	mov    QWORD PTR [rsp+0x2b0],0x1
  2065ba:	00 01 00 00 00 
  2065bf:	48 89 44 24 30       	mov    QWORD PTR [rsp+0x30],rax
  2065c4:	e8 f7 26 00 00       	call   208cc0 <_ZN4core3mem7size_of17h6f5af54ef52dbc4eE>
  2065c9:	48 83 f8 00          	cmp    rax,0x0
  2065cd:	75 44                	jne    206613 <_ZN91_$LT$core..slice..Iter$LT$$u27$a$C$$u20$T$GT$$u20$as$u20$core..iter..iterator..Iterator$GT$8try_fold17h968060b309527bb6E+0x733>
  2065cf:	31 c0                	xor    eax,eax
  2065d1:	89 c1                	mov    ecx,eax
  2065d3:	48 8b 94 24 a8 02 00 	mov    rdx,QWORD PTR [rsp+0x2a8]
  2065da:	00 
  2065db:	48 8b 52 08          	mov    rdx,QWORD PTR [rdx+0x8]
  2065df:	48 2b 8c 24 b0 02 00 	sub    rcx,QWORD PTR [rsp+0x2b0]
  2065e6:	00 
  2065e7:	48 89 d7             	mov    rdi,rdx
  2065ea:	48 89 ce             	mov    rsi,rcx
  2065ed:	e8 be 96 00 00       	call   20fcb0 <_ZN4core3ptr33_$LT$impl$u20$$BP$const$u20$T$GT$15wrapping_offset17hdc7a0983597c1ad6E>
  2065f2:	48 8b 8c 24 a8 02 00 	mov    rcx,QWORD PTR [rsp+0x2a8]
  2065f9:	00 
  2065fa:	48 89 41 08          	mov    QWORD PTR [rcx+0x8],rax
  2065fe:	48 8b 84 24 a8 02 00 	mov    rax,QWORD PTR [rsp+0x2a8]
  206605:	00 
  206606:	48 8b 00             	mov    rax,QWORD PTR [rax]
  206609:	48 89 84 24 b8 02 00 	mov    QWORD PTR [rsp+0x2b8],rax
  206610:	00 
  206611:	eb 46                	jmp    206659 <_ZN91_$LT$core..slice..Iter$LT$$u27$a$C$$u20$T$GT$$u20$as$u20$core..iter..iterator..Iterator$GT$8try_fold17h968060b309527bb6E+0x779>
  206613:	48 8b 84 24 a8 02 00 	mov    rax,QWORD PTR [rsp+0x2a8]
  20661a:	00 
  20661b:	48 8b 00             	mov    rax,QWORD PTR [rax]
  20661e:	48 89 84 24 c0 02 00 	mov    QWORD PTR [rsp+0x2c0],rax
  206625:	00 
  206626:	48 8b 84 24 a8 02 00 	mov    rax,QWORD PTR [rsp+0x2a8]
  20662d:	00 
  20662e:	48 8b 38             	mov    rdi,QWORD PTR [rax]
  206631:	48 8b b4 24 b0 02 00 	mov    rsi,QWORD PTR [rsp+0x2b0]
  206638:	00 
  206639:	e8 52 0c 00 00       	call   207290 <_ZN4core3ptr33_$LT$impl$u20$$BP$const$u20$T$GT$6offset17hd29c50b20b8cdcc3E>
  20663e:	48 8b b4 24 a8 02 00 	mov    rsi,QWORD PTR [rsp+0x2a8]
  206645:	00 
  206646:	48 89 06             	mov    QWORD PTR [rsi],rax
  206649:	48 8b 84 24 c0 02 00 	mov    rax,QWORD PTR [rsp+0x2c0]
  206650:	00 
  206651:	48 89 84 24 b8 02 00 	mov    QWORD PTR [rsp+0x2b8],rax
  206658:	00 
  206659:	48 8b 84 24 b8 02 00 	mov    rax,QWORD PTR [rsp+0x2b8]
  206660:	00 
  206661:	48 89 44 24 28       	mov    QWORD PTR [rsp+0x28],rax
  206666:	48 8b 44 24 30       	mov    rax,QWORD PTR [rsp+0x30]
  20666b:	48 89 84 24 60 02 00 	mov    QWORD PTR [rsp+0x260],rax
  206672:	00 
  206673:	48 8b 4c 24 28       	mov    rcx,QWORD PTR [rsp+0x28]
  206678:	48 89 8c 24 68 02 00 	mov    QWORD PTR [rsp+0x268],rcx
  20667f:	00 
  206680:	48 8b b4 24 60 02 00 	mov    rsi,QWORD PTR [rsp+0x260]
  206687:	00 
  206688:	48 8b 94 24 68 02 00 	mov    rdx,QWORD PTR [rsp+0x268]
  20668f:	00 
  206690:	48 8d bc 24 08 01 00 	lea    rdi,[rsp+0x108]
  206697:	00 
  206698:	e8 c3 f7 ff ff       	call   205e60 <_ZN91_$LT$core..slice..Iter$LT$$u27$a$C$$u20$T$GT$$u20$as$u20$core..iter..iterator..Iterator$GT$8position28_$u7b$$u7b$closure$u7d$$u7d$17h62850dec954c7bb8E>
  20669d:	48 89 44 24 20       	mov    QWORD PTR [rsp+0x20],rax
  2066a2:	48 89 54 24 18       	mov    QWORD PTR [rsp+0x18],rdx
  2066a7:	48 8b 7c 24 20       	mov    rdi,QWORD PTR [rsp+0x20]
  2066ac:	48 8b 74 24 18       	mov    rsi,QWORD PTR [rsp+0x18]
  2066b1:	e8 5a 92 00 00       	call   20f910 <_ZN78_$LT$core..result..Result$LT$T$C$$u20$E$GT$$u20$as$u20$core..ops..try..Try$GT$11into_result17hfe856afa90db9746E>
  2066b6:	48 89 94 24 58 02 00 	mov    QWORD PTR [rsp+0x258],rdx
  2066bd:	00 
  2066be:	48 89 84 24 50 02 00 	mov    QWORD PTR [rsp+0x250],rax
  2066c5:	00 
  2066c6:	48 8b 84 24 50 02 00 	mov    rax,QWORD PTR [rsp+0x250]
  2066cd:	00 
  2066ce:	48 85 c0             	test   rax,rax
  2066d1:	48 89 44 24 10       	mov    QWORD PTR [rsp+0x10],rax
  2066d6:	74 17                	je     2066ef <_ZN91_$LT$core..slice..Iter$LT$$u27$a$C$$u20$T$GT$$u20$as$u20$core..iter..iterator..Iterator$GT$8try_fold17h968060b309527bb6E+0x80f>
  2066d8:	eb 00                	jmp    2066da <_ZN91_$LT$core..slice..Iter$LT$$u27$a$C$$u20$T$GT$$u20$as$u20$core..iter..iterator..Iterator$GT$8try_fold17h968060b309527bb6E+0x7fa>
  2066da:	48 8b 44 24 10       	mov    rax,QWORD PTR [rsp+0x10]
  2066df:	48 83 e8 01          	sub    rax,0x1
  2066e3:	48 89 44 24 08       	mov    QWORD PTR [rsp+0x8],rax
  2066e8:	74 39                	je     206723 <_ZN91_$LT$core..slice..Iter$LT$$u27$a$C$$u20$T$GT$$u20$as$u20$core..iter..iterator..Iterator$GT$8try_fold17h968060b309527bb6E+0x843>
  2066ea:	e9 5d fa ff ff       	jmp    20614c <_ZN91_$LT$core..slice..Iter$LT$$u27$a$C$$u20$T$GT$$u20$as$u20$core..iter..iterator..Iterator$GT$8try_fold17h968060b309527bb6E+0x26c>
  2066ef:	48 8b 84 24 58 02 00 	mov    rax,QWORD PTR [rsp+0x258]
  2066f6:	00 
  2066f7:	48 89 84 24 78 02 00 	mov    QWORD PTR [rsp+0x278],rax
  2066fe:	00 
  2066ff:	48 8b 84 24 78 02 00 	mov    rax,QWORD PTR [rsp+0x278]
  206706:	00 
  206707:	48 89 84 24 20 01 00 	mov    QWORD PTR [rsp+0x120],rax
  20670e:	00 
  20670f:	48 83 bc 24 50 02 00 	cmp    QWORD PTR [rsp+0x250],0x0
  206716:	00 00 
  206718:	0f 84 43 03 00 00    	je     206a61 <_ZN91_$LT$core..slice..Iter$LT$$u27$a$C$$u20$T$GT$$u20$as$u20$core..iter..iterator..Iterator$GT$8try_fold17h968060b309527bb6E+0xb81>
  20671e:	e9 43 03 00 00       	jmp    206a66 <_ZN91_$LT$core..slice..Iter$LT$$u27$a$C$$u20$T$GT$$u20$as$u20$core..iter..iterator..Iterator$GT$8try_fold17h968060b309527bb6E+0xb86>
  206723:	48 8b 84 24 58 02 00 	mov    rax,QWORD PTR [rsp+0x258]
  20672a:	00 
  20672b:	48 89 84 24 70 02 00 	mov    QWORD PTR [rsp+0x270],rax
  206732:	00 
  206733:	48 8b bc 24 70 02 00 	mov    rdi,QWORD PTR [rsp+0x270]
  20673a:	00 
  20673b:	e8 60 90 00 00       	call   20f7a0 <_ZN50_$LT$T$u20$as$u20$core..convert..From$LT$T$GT$$GT$4from17h95e5a5bf7e6bf487E>
  206740:	48 89 04 24          	mov    QWORD PTR [rsp],rax
  206744:	48 8b 3c 24          	mov    rdi,QWORD PTR [rsp]
  206748:	e8 93 91 00 00       	call   20f8e0 <_ZN78_$LT$core..result..Result$LT$T$C$$u20$E$GT$$u20$as$u20$core..ops..try..Try$GT$10from_error17hd93f3c7a1ba8e02dE>
  20674d:	48 89 94 24 18 01 00 	mov    QWORD PTR [rsp+0x118],rdx
  206754:	00 
  206755:	48 89 84 24 10 01 00 	mov    QWORD PTR [rsp+0x110],rax
  20675c:	00 
  20675d:	48 83 bc 24 50 02 00 	cmp    QWORD PTR [rsp+0x250],0x0
  206764:	00 00 
  206766:	0f 84 f3 02 00 00    	je     206a5f <_ZN91_$LT$core..slice..Iter$LT$$u27$a$C$$u20$T$GT$$u20$as$u20$core..iter..iterator..Iterator$GT$8try_fold17h968060b309527bb6E+0xb7f>
  20676c:	e9 e9 02 00 00       	jmp    206a5a <_ZN91_$LT$core..slice..Iter$LT$$u27$a$C$$u20$T$GT$$u20$as$u20$core..iter..iterator..Iterator$GT$8try_fold17h968060b309527bb6E+0xb7a>
  206771:	e9 62 fa ff ff       	jmp    2061d8 <_ZN91_$LT$core..slice..Iter$LT$$u27$a$C$$u20$T$GT$$u20$as$u20$core..iter..iterator..Iterator$GT$8try_fold17h968060b309527bb6E+0x2f8>
  206776:	e9 75 fa ff ff       	jmp    2061f0 <_ZN91_$LT$core..slice..Iter$LT$$u27$a$C$$u20$T$GT$$u20$as$u20$core..iter..iterator..Iterator$GT$8try_fold17h968060b309527bb6E+0x310>
  20677b:	eb f9                	jmp    206776 <_ZN91_$LT$core..slice..Iter$LT$$u27$a$C$$u20$T$GT$$u20$as$u20$core..iter..iterator..Iterator$GT$8try_fold17h968060b309527bb6E+0x896>
  20677d:	48 8d 84 24 08 01 00 	lea    rax,[rsp+0x108]
  206784:	00 
  206785:	48 89 84 24 88 01 00 	mov    QWORD PTR [rsp+0x188],rax
  20678c:	00 
  20678d:	48 8b 84 24 20 01 00 	mov    rax,QWORD PTR [rsp+0x120]
  206794:	00 
  206795:	48 89 84 24 a0 01 00 	mov    QWORD PTR [rsp+0x1a0],rax
  20679c:	00 
  20679d:	48 8b 84 24 f8 00 00 	mov    rax,QWORD PTR [rsp+0xf8]
  2067a4:	00 
  2067a5:	48 89 84 24 c8 02 00 	mov    QWORD PTR [rsp+0x2c8],rax
  2067ac:	00 
  2067ad:	48 c7 84 24 d0 02 00 	mov    QWORD PTR [rsp+0x2d0],0x1
  2067b4:	00 01 00 00 00 
  2067b9:	e8 02 25 00 00       	call   208cc0 <_ZN4core3mem7size_of17h6f5af54ef52dbc4eE>
  2067be:	48 83 f8 00          	cmp    rax,0x0
  2067c2:	75 44                	jne    206808 <_ZN91_$LT$core..slice..Iter$LT$$u27$a$C$$u20$T$GT$$u20$as$u20$core..iter..iterator..Iterator$GT$8try_fold17h968060b309527bb6E+0x928>
  2067c4:	31 c0                	xor    eax,eax
  2067c6:	89 c1                	mov    ecx,eax
  2067c8:	48 8b 94 24 c8 02 00 	mov    rdx,QWORD PTR [rsp+0x2c8]
  2067cf:	00 
  2067d0:	48 8b 52 08          	mov    rdx,QWORD PTR [rdx+0x8]
  2067d4:	48 2b 8c 24 d0 02 00 	sub    rcx,QWORD PTR [rsp+0x2d0]
  2067db:	00 
  2067dc:	48 89 d7             	mov    rdi,rdx
  2067df:	48 89 ce             	mov    rsi,rcx
  2067e2:	e8 c9 94 00 00       	call   20fcb0 <_ZN4core3ptr33_$LT$impl$u20$$BP$const$u20$T$GT$15wrapping_offset17hdc7a0983597c1ad6E>
  2067e7:	48 8b 8c 24 c8 02 00 	mov    rcx,QWORD PTR [rsp+0x2c8]
  2067ee:	00 
  2067ef:	48 89 41 08          	mov    QWORD PTR [rcx+0x8],rax
  2067f3:	48 8b 84 24 c8 02 00 	mov    rax,QWORD PTR [rsp+0x2c8]
  2067fa:	00 
  2067fb:	48 8b 00             	mov    rax,QWORD PTR [rax]
  2067fe:	48 89 84 24 d8 02 00 	mov    QWORD PTR [rsp+0x2d8],rax
  206805:	00 
  206806:	eb 46                	jmp    20684e <_ZN91_$LT$core..slice..Iter$LT$$u27$a$C$$u20$T$GT$$u20$as$u20$core..iter..iterator..Iterator$GT$8try_fold17h968060b309527bb6E+0x96e>
  206808:	48 8b 84 24 c8 02 00 	mov    rax,QWORD PTR [rsp+0x2c8]
  20680f:	00 
  206810:	48 8b 00             	mov    rax,QWORD PTR [rax]
  206813:	48 89 84 24 e0 02 00 	mov    QWORD PTR [rsp+0x2e0],rax
  20681a:	00 
  20681b:	48 8b 84 24 c8 02 00 	mov    rax,QWORD PTR [rsp+0x2c8]
  206822:	00 
  206823:	48 8b 38             	mov    rdi,QWORD PTR [rax]
  206826:	48 8b b4 24 d0 02 00 	mov    rsi,QWORD PTR [rsp+0x2d0]
  20682d:	00 
  20682e:	e8 5d 0a 00 00       	call   207290 <_ZN4core3ptr33_$LT$impl$u20$$BP$const$u20$T$GT$6offset17hd29c50b20b8cdcc3E>
  206833:	48 8b b4 24 c8 02 00 	mov    rsi,QWORD PTR [rsp+0x2c8]
  20683a:	00 
  20683b:	48 89 06             	mov    QWORD PTR [rsi],rax
  20683e:	48 8b 84 24 e0 02 00 	mov    rax,QWORD PTR [rsp+0x2e0]
  206845:	00 
  206846:	48 89 84 24 d8 02 00 	mov    QWORD PTR [rsp+0x2d8],rax
  20684d:	00 
  20684e:	48 8b 84 24 d8 02 00 	mov    rax,QWORD PTR [rsp+0x2d8]
  206855:	00 
  206856:	48 89 84 24 a8 01 00 	mov    QWORD PTR [rsp+0x1a8],rax
  20685d:	00 
  20685e:	e9 91 f9 ff ff       	jmp    2061f4 <_ZN91_$LT$core..slice..Iter$LT$$u27$a$C$$u20$T$GT$$u20$as$u20$core..iter..iterator..Iterator$GT$8try_fold17h968060b309527bb6E+0x314>
  206863:	e9 15 ff ff ff       	jmp    20677d <_ZN91_$LT$core..slice..Iter$LT$$u27$a$C$$u20$T$GT$$u20$as$u20$core..iter..iterator..Iterator$GT$8try_fold17h968060b309527bb6E+0x89d>
  206868:	e9 83 f9 ff ff       	jmp    2061f0 <_ZN91_$LT$core..slice..Iter$LT$$u27$a$C$$u20$T$GT$$u20$as$u20$core..iter..iterator..Iterator$GT$8try_fold17h968060b309527bb6E+0x310>
  20686d:	eb f9                	jmp    206868 <_ZN91_$LT$core..slice..Iter$LT$$u27$a$C$$u20$T$GT$$u20$as$u20$core..iter..iterator..Iterator$GT$8try_fold17h968060b309527bb6E+0x988>
  20686f:	48 8d 84 24 08 01 00 	lea    rax,[rsp+0x108]
  206876:	00 
  206877:	48 89 84 24 d0 01 00 	mov    QWORD PTR [rsp+0x1d0],rax
  20687e:	00 
  20687f:	48 8b 84 24 20 01 00 	mov    rax,QWORD PTR [rsp+0x120]
  206886:	00 
  206887:	48 89 84 24 e8 01 00 	mov    QWORD PTR [rsp+0x1e8],rax
  20688e:	00 
  20688f:	48 8b 84 24 f8 00 00 	mov    rax,QWORD PTR [rsp+0xf8]
  206896:	00 
  206897:	48 89 84 24 e8 02 00 	mov    QWORD PTR [rsp+0x2e8],rax
  20689e:	00 
  20689f:	48 c7 84 24 f0 02 00 	mov    QWORD PTR [rsp+0x2f0],0x1
  2068a6:	00 01 00 00 00 
  2068ab:	e8 10 24 00 00       	call   208cc0 <_ZN4core3mem7size_of17h6f5af54ef52dbc4eE>
  2068b0:	48 83 f8 00          	cmp    rax,0x0
  2068b4:	75 44                	jne    2068fa <_ZN91_$LT$core..slice..Iter$LT$$u27$a$C$$u20$T$GT$$u20$as$u20$core..iter..iterator..Iterator$GT$8try_fold17h968060b309527bb6E+0xa1a>
  2068b6:	31 c0                	xor    eax,eax
  2068b8:	89 c1                	mov    ecx,eax
  2068ba:	48 8b 94 24 e8 02 00 	mov    rdx,QWORD PTR [rsp+0x2e8]
  2068c1:	00 
  2068c2:	48 8b 52 08          	mov    rdx,QWORD PTR [rdx+0x8]
  2068c6:	48 2b 8c 24 f0 02 00 	sub    rcx,QWORD PTR [rsp+0x2f0]
  2068cd:	00 
  2068ce:	48 89 d7             	mov    rdi,rdx
  2068d1:	48 89 ce             	mov    rsi,rcx
  2068d4:	e8 d7 93 00 00       	call   20fcb0 <_ZN4core3ptr33_$LT$impl$u20$$BP$const$u20$T$GT$15wrapping_offset17hdc7a0983597c1ad6E>
  2068d9:	48 8b 8c 24 e8 02 00 	mov    rcx,QWORD PTR [rsp+0x2e8]
  2068e0:	00 
  2068e1:	48 89 41 08          	mov    QWORD PTR [rcx+0x8],rax
  2068e5:	48 8b 84 24 e8 02 00 	mov    rax,QWORD PTR [rsp+0x2e8]
  2068ec:	00 
  2068ed:	48 8b 00             	mov    rax,QWORD PTR [rax]
  2068f0:	48 89 84 24 f8 02 00 	mov    QWORD PTR [rsp+0x2f8],rax
  2068f7:	00 
  2068f8:	eb 46                	jmp    206940 <_ZN91_$LT$core..slice..Iter$LT$$u27$a$C$$u20$T$GT$$u20$as$u20$core..iter..iterator..Iterator$GT$8try_fold17h968060b309527bb6E+0xa60>
  2068fa:	48 8b 84 24 e8 02 00 	mov    rax,QWORD PTR [rsp+0x2e8]
  206901:	00 
  206902:	48 8b 00             	mov    rax,QWORD PTR [rax]
  206905:	48 89 84 24 00 03 00 	mov    QWORD PTR [rsp+0x300],rax
  20690c:	00 
  20690d:	48 8b 84 24 e8 02 00 	mov    rax,QWORD PTR [rsp+0x2e8]
  206914:	00 
  206915:	48 8b 38             	mov    rdi,QWORD PTR [rax]
  206918:	48 8b b4 24 f0 02 00 	mov    rsi,QWORD PTR [rsp+0x2f0]
  20691f:	00 
  206920:	e8 6b 09 00 00       	call   207290 <_ZN4core3ptr33_$LT$impl$u20$$BP$const$u20$T$GT$6offset17hd29c50b20b8cdcc3E>
  206925:	48 8b b4 24 e8 02 00 	mov    rsi,QWORD PTR [rsp+0x2e8]
  20692c:	00 
  20692d:	48 89 06             	mov    QWORD PTR [rsi],rax
  206930:	48 8b 84 24 00 03 00 	mov    rax,QWORD PTR [rsp+0x300]
  206937:	00 
  206938:	48 89 84 24 f8 02 00 	mov    QWORD PTR [rsp+0x2f8],rax
  20693f:	00 
  206940:	48 8b 84 24 f8 02 00 	mov    rax,QWORD PTR [rsp+0x2f8]
  206947:	00 
  206948:	48 89 84 24 f0 01 00 	mov    QWORD PTR [rsp+0x1f0],rax
  20694f:	00 
  206950:	e9 d0 f9 ff ff       	jmp    206325 <_ZN91_$LT$core..slice..Iter$LT$$u27$a$C$$u20$T$GT$$u20$as$u20$core..iter..iterator..Iterator$GT$8try_fold17h968060b309527bb6E+0x445>
  206955:	e9 15 ff ff ff       	jmp    20686f <_ZN91_$LT$core..slice..Iter$LT$$u27$a$C$$u20$T$GT$$u20$as$u20$core..iter..iterator..Iterator$GT$8try_fold17h968060b309527bb6E+0x98f>
  20695a:	e9 91 f8 ff ff       	jmp    2061f0 <_ZN91_$LT$core..slice..Iter$LT$$u27$a$C$$u20$T$GT$$u20$as$u20$core..iter..iterator..Iterator$GT$8try_fold17h968060b309527bb6E+0x310>
